(dp0
S'METTS MARK'
p1
(dp2
S'to_messages'
p3
I807
sS'deferral_payments'
p4
S'NaN'
p5
sS'expenses'
p6
I94299
sS'poi'
p7
I00
sS'deferred_income'
p8
g5
sS'email_address'
p9
S'mark.metts@enron.com'
p10
sS'long_term_incentive'
p11
g5
sS'shared_receipt_with_poi/to_messages'
p12
F0.8698884758364313
sS'restricted_stock_deferred'
p13
g5
sS'shared_receipt_with_poi'
p14
I702
sS'loan_advances'
p15
g5
sS'from_messages'
p16
I29
sS'other'
p17
I1740
sS'director_fees'
p18
g5
sS'bonus'
p19
I600000
sS'total_stock_value'
p20
I585062
sS'from_poi_to_this_person'
p21
I38
sS'from_this_person_to_poi'
p22
I1
sS'restricted_stock'
p23
I585062
sS'salary'
p24
I365788
sS'total_payments'
p25
I1061827
sS'exercised_stock_options'
p26
g5
ssS'BAXTER JOHN C'
p27
(dp28
g3
g5
sg4
I1295738
sg6
I11200
sg7
I00
sg8
I-1386055
sg9
g5
sg11
I1586055
sS'shared_receipt_with_poi/to_messages'
p29
I0
sg13
g5
sg14
g5
sg15
g5
sg16
g5
sg17
I2660303
sg18
g5
sg19
I1200000
sg20
I10623258
sg21
g5
sg22
g5
sg23
I3942714
sg24
I267102
sg25
I5634343
sg26
I6680544
ssS'ELLIOTT STEVEN'
p30
(dp31
g3
g5
sg4
g5
sg6
I78552
sg7
I00
sg8
I-400729
sg9
S'steven.elliott@enron.com'
p32
sg11
g5
sS'shared_receipt_with_poi/to_messages'
p33
I0
sg13
g5
sg14
g5
sg15
g5
sg16
g5
sg17
I12961
sg18
g5
sg19
I350000
sg20
I6678735
sg21
g5
sg22
g5
sg23
I1788391
sg24
I170941
sg25
I211725
sg26
I4890344
ssS'CORDES WILLIAM R'
p34
(dp35
g3
I764
sg4
g5
sg6
g5
sg7
I00
sg8
g5
sg9
S'bill.cordes@enron.com'
p36
sg11
g5
sS'shared_receipt_with_poi/to_messages'
p37
F0.07591623036649214
sg13
g5
sg14
I58
sg15
g5
sg16
I12
sg17
g5
sg18
g5
sg19
g5
sg20
I1038185
sg21
I10
sg22
I0
sg23
I386335
sg24
g5
sg25
g5
sg26
I651850
ssS'HANNON KEVIN P'
p38
(dp39
g3
I1045
sg4
g5
sg6
I34039
sg7
I01
sg8
I-3117011
sg9
S'kevin.hannon@enron.com'
p40
sg11
I1617011
sS'shared_receipt_with_poi/to_messages'
p41
F0.9904306220095693
sg13
g5
sg14
I1035
sg15
g5
sg16
I32
sg17
I11350
sg18
g5
sg19
I1500000
sg20
I6391065
sg21
I32
sg22
I21
sg23
I853064
sg24
I243293
sg25
I288682
sg26
I5538001
ssS'MORDAUNT KRISTINA M'
p42
(dp43
g3
g5
sg4
g5
sg6
I35018
sg7
I00
sg8
g5
sg9
S'kristina.mordaunt@enron.com'
p44
sg11
g5
sS'shared_receipt_with_poi/to_messages'
p45
I0
sg13
g5
sg14
g5
sg15
g5
sg16
g5
sg17
I1411
sg18
g5
sg19
I325000
sg20
I208510
sg21
g5
sg22
g5
sg23
I208510
sg24
I267093
sg25
I628522
sg26
g5
ssS'MEYER ROCKFORD G'
p46
(dp47
g3
I232
sg4
I1848227
sg6
g5
sg7
I00
sg8
g5
sg9
S'rockford.meyer@enron.com'
p48
sg11
g5
sS'shared_receipt_with_poi/to_messages'
p49
F0.09482758620689655
sg13
g5
sg14
I22
sg15
g5
sg16
I28
sg17
g5
sg18
g5
sg19
g5
sg20
I955873
sg21
I0
sg22
I0
sg23
I462384
sg24
g5
sg25
I1848227
sg26
I493489
ssS'MCMAHON JEFFREY'
p50
(dp51
g3
I2355
sg4
g5
sg6
I137108
sg7
I00
sg8
g5
sg9
S'jeffrey.mcmahon@enron.com'
p52
sg11
I694862
sS'shared_receipt_with_poi/to_messages'
p53
F0.9460721868365181
sg13
g5
sg14
I2228
sg15
g5
sg16
I48
sg17
I297353
sg18
g5
sg19
I2600000
sg20
I1662855
sg21
I58
sg22
I26
sg23
I558801
sg24
I370448
sg25
I4099771
sg26
I1104054
ssS'HORTON STANLEY C'
p54
(dp55
g3
I2350
sg4
I3131860
sg6
g5
sg7
I00
sg8
g5
sg9
S'stanley.horton@enron.com'
p56
sg11
g5
sS'shared_receipt_with_poi/to_messages'
p57
F0.4570212765957447
sg13
g5
sg14
I1074
sg15
g5
sg16
I1073
sg17
g5
sg18
g5
sg19
g5
sg20
I7256648
sg21
I44
sg22
I15
sg23
I2046079
sg24
g5
sg25
I3131860
sg26
I5210569
ssS'PIPER GREGORY F'
p58
(dp59
g3
I1238
sg4
I1130036
sg6
I43057
sg7
I00
sg8
I-33333
sg9
S'greg.piper@enron.com'
p60
sg11
g5
sS'shared_receipt_with_poi/to_messages'
p61
F0.5993537964458805
sg13
I-409554
sg14
I742
sg15
g5
sg16
I222
sg17
I778
sg18
g5
sg19
I400000
sg20
I880290
sg21
I61
sg22
I48
sg23
I409554
sg24
I197091
sg25
I1737629
sg26
I880290
ssS'HUMPHREY GENE E'
p62
(dp63
g3
I128
sg4
I2964506
sg6
I4994
sg7
I00
sg8
g5
sg9
S'gene.humphrey@enron.com'
p64
sg11
g5
sS'shared_receipt_with_poi/to_messages'
p65
F0.9296875
sg13
g5
sg14
I119
sg15
g5
sg16
I17
sg17
g5
sg18
g5
sg19
g5
sg20
I2282768
sg21
I10
sg22
I17
sg23
g5
sg24
I130724
sg25
I3100224
sg26
I2282768
ssS'UMANOFF ADAM S'
p66
(dp67
g3
I111
sg4
g5
sg6
I53122
sg7
I00
sg8
g5
sg9
S'adam.umanoff@enron.com'
p68
sg11
g5
sS'shared_receipt_with_poi/to_messages'
p69
F0.36936936936936937
sg13
g5
sg14
I41
sg15
g5
sg16
I18
sg17
g5
sg18
g5
sg19
I788750
sg20
g5
sg21
I12
sg22
I0
sg23
g5
sg24
I288589
sg25
I1130461
sg26
g5
ssS'BLACHMAN JEREMY M'
p70
(dp71
g3
I2475
sg4
g5
sg6
I84208
sg7
I00
sg8
g5
sg9
S'jeremy.blachman@enron.com'
p72
sg11
I831809
sS'shared_receipt_with_poi/to_messages'
p73
F0.9397979797979797
sg13
g5
sg14
I2326
sg15
g5
sg16
I14
sg17
I272
sg18
g5
sg19
I850000
sg20
I954354
sg21
I25
sg22
I2
sg23
I189041
sg24
I248546
sg25
I2014835
sg26
I765313
ssS'SUNDE MARTIN'
p74
(dp75
g3
I2647
sg4
g5
sg6
g5
sg7
I00
sg8
g5
sg9
S'marty.sunde@enron.com'
p76
sg11
I476451
sS'shared_receipt_with_poi/to_messages'
p77
F0.9690215338118625
sg13
g5
sg14
I2565
sg15
g5
sg16
I38
sg17
I111122
sg18
g5
sg19
I700000
sg20
I698920
sg21
I37
sg22
I13
sg23
I698920
sg24
I257486
sg25
I1545059
sg26
g5
ssS'GIBBS DANA R'
p78
(dp79
g3
I169
sg4
I504610
sg6
g5
sg7
I00
sg8
g5
sg9
S'dana.gibbs@enron.com'
p80
sg11
I461912
sS'shared_receipt_with_poi/to_messages'
p81
F0.13609467455621302
sg13
g5
sg14
I23
sg15
g5
sg16
I12
sg17
g5
sg18
g5
sg19
g5
sg20
I2218275
sg21
I0
sg22
I0
sg23
g5
sg24
g5
sg25
I966522
sg26
I2218275
ssS'LOWRY CHARLES P'
p82
(dp83
g3
g5
sg4
g5
sg6
g5
sg7
I00
sg8
g5
sg9
g5
sg11
g5
sS'shared_receipt_with_poi/to_messages'
p84
I0
sg13
I-153686
sg14
g5
sg15
g5
sg16
g5
sg17
g5
sg18
g5
sg19
g5
sg20
I372205
sg21
g5
sg22
g5
sg23
I153686
sg24
g5
sg25
g5
sg26
I372205
ssS'COLWELL WESLEY'
p85
(dp86
g3
I1758
sg4
I27610
sg6
I16514
sg7
I01
sg8
I-144062
sg9
S'wes.colwell@enron.com'
p87
sg11
g5
sS'shared_receipt_with_poi/to_messages'
p88
F0.6439135381114903
sg13
g5
sg14
I1132
sg15
g5
sg16
I40
sg17
I101740
sg18
g5
sg19
I1200000
sg20
I698242
sg21
I240
sg22
I11
sg23
I698242
sg24
I288542
sg25
I1490344
sg26
g5
ssS'MULLER MARK S'
p89
(dp90
g3
I136
sg4
I842924
sg6
g5
sg7
I00
sg8
I-719000
sg9
S's..muller@enron.com'
p91
sg11
I1725545
sS'shared_receipt_with_poi/to_messages'
p92
F0.8382352941176471
sg13
g5
sg14
I114
sg15
g5
sg16
I16
sg17
I947
sg18
g5
sg19
I1100000
sg20
I1416848
sg21
I12
sg22
I0
sg23
I360528
sg24
I251654
sg25
I3202070
sg26
I1056320
ssS'JACKSON CHARLENE R'
p93
(dp94
g3
I258
sg4
g5
sg6
I10181
sg7
I00
sg8
g5
sg9
S'charlene.jackson@enron.com'
p95
sg11
g5
sS'shared_receipt_with_poi/to_messages'
p96
F0.45348837209302323
sg13
g5
sg14
I117
sg15
g5
sg16
I56
sg17
I2435
sg18
g5
sg19
I250000
sg20
I725735
sg21
I25
sg22
I19
sg23
I540672
sg24
I288558
sg25
I551174
sg26
I185063
ssS'WESTFAHL RICHARD K'
p97
(dp98
g3
g5
sg4
g5
sg6
I51870
sg7
I00
sg8
I-10800
sg9
S'dick.westfahl@enron.com'
p99
sg11
I256191
sS'shared_receipt_with_poi/to_messages'
p100
I0
sg13
g5
sg14
g5
sg15
g5
sg16
g5
sg17
I401130
sg18
g5
sg19
g5
sg20
I384930
sg21
g5
sg22
g5
sg23
I384930
sg24
I63744
sg25
I762135
sg26
g5
ssS'WALTERS GARETH W'
p101
(dp102
g3
g5
sg4
I53625
sg6
I33785
sg7
I00
sg8
g5
sg9
g5
sg11
g5
sS'shared_receipt_with_poi/to_messages'
p103
I0
sg13
g5
sg14
g5
sg15
g5
sg16
g5
sg17
g5
sg18
g5
sg19
g5
sg20
I1030329
sg21
g5
sg22
g5
sg23
g5
sg24
g5
sg25
I87410
sg26
I1030329
ssS'WALLS JR ROBERT H'
p104
(dp105
g3
I671
sg4
g5
sg6
I50936
sg7
I00
sg8
g5
sg9
S'rob.walls@enron.com'
p106
sg11
I540751
sS'shared_receipt_with_poi/to_messages'
p107
F0.3204172876304024
sg13
g5
sg14
I215
sg15
g5
sg16
I146
sg17
I2
sg18
g5
sg19
I850000
sg20
I5898997
sg21
I17
sg22
I0
sg23
I1552453
sg24
I357091
sg25
I1798780
sg26
I4346544
ssS'KITCHEN LOUISE'
p108
(dp109
g3
I8305
sg4
g5
sg6
I5774
sg7
I00
sg8
g5
sg9
S'louise.kitchen@enron.com'
p110
sg11
g5
sS'shared_receipt_with_poi/to_messages'
p111
F0.441782059000602
sg13
g5
sg14
I3669
sg15
g5
sg16
I1728
sg17
I93925
sg18
g5
sg19
I3100000
sg20
I547143
sg21
I251
sg22
I194
sg23
I466101
sg24
I271442
sg25
I3471141
sg26
I81042
ssS'CHAN RONNIE'
p112
(dp113
g3
g5
sg4
g5
sg6
g5
sg7
I00
sg8
I-98784
sg9
g5
sg11
g5
sS'shared_receipt_with_poi/to_messages'
p114
I0
sg13
I-32460
sg14
g5
sg15
g5
sg16
g5
sg17
g5
sg18
I98784
sg19
g5
sg20
g5
sg21
g5
sg22
g5
sg23
I32460
sg24
g5
sg25
g5
sg26
g5
ssS'BELFER ROBERT'
p115
(dp116
g3
g5
sg4
I-102500
sg6
g5
sg7
I00
sg8
g5
sg9
g5
sg11
g5
sS'shared_receipt_with_poi/to_messages'
p117
I0
sg13
I44093
sg14
g5
sg15
g5
sg16
g5
sg17
g5
sg18
I3285
sg19
g5
sg20
I-44093
sg21
g5
sg22
g5
sg23
g5
sg24
g5
sg25
I102500
sg26
I3285
ssS'SHANKMAN JEFFREY A'
p118
(dp119
g3
I3221
sg4
g5
sg6
I178979
sg7
I00
sg8
g5
sg9
S'jeffrey.shankman@enron.com'
p120
sg11
I554422
sS'shared_receipt_with_poi/to_messages'
p121
F0.5371002794163303
sg13
g5
sg14
I1730
sg15
g5
sg16
I2681
sg17
I1191
sg18
g5
sg19
I2000000
sg20
I2072035
sg21
I94
sg22
I83
sg23
I630137
sg24
I304110
sg25
I3038702
sg26
I1441898
ssS'WODRASKA JOHN'
p122
(dp123
g3
g5
sg4
g5
sg6
g5
sg7
I00
sg8
g5
sg9
S'john.wodraska@enron.com'
p124
sg11
g5
sS'shared_receipt_with_poi/to_messages'
p125
I0
sg13
g5
sg14
g5
sg15
g5
sg16
g5
sg17
I189583
sg18
g5
sg19
g5
sg20
g5
sg21
g5
sg22
g5
sg23
g5
sg24
g5
sg25
I189583
sg26
g5
ssS'BERGSIEKER RICHARD P'
p126
(dp127
g3
I383
sg4
g5
sg6
I59175
sg7
I00
sg8
I-485813
sg9
S'rick.bergsieker@enron.com'
p128
sg11
I180250
sS'shared_receipt_with_poi/to_messages'
p129
F0.608355091383812
sg13
g5
sg14
I233
sg15
g5
sg16
I59
sg17
I427316
sg18
g5
sg19
I250000
sg20
I659249
sg21
I4
sg22
I0
sg23
I659249
sg24
I187922
sg25
I618850
sg26
g5
ssS'URQUHART JOHN A'
p130
(dp131
g3
g5
sg4
g5
sg6
I228656
sg7
I00
sg8
I-36666
sg9
g5
sg11
g5
sS'shared_receipt_with_poi/to_messages'
p132
I0
sg13
g5
sg14
g5
sg15
g5
sg16
g5
sg17
g5
sg18
I36666
sg19
g5
sg20
g5
sg21
g5
sg22
g5
sg23
g5
sg24
g5
sg25
I228656
sg26
g5
ssS'BIBI PHILIPPE A'
p133
(dp134
g3
I1607
sg4
g5
sg6
I38559
sg7
I00
sg8
g5
sg9
S'philippe.bibi@enron.com'
p135
sg11
I369721
sS'shared_receipt_with_poi/to_messages'
p136
F0.8313627878033603
sg13
g5
sg14
I1336
sg15
g5
sg16
I40
sg17
I425688
sg18
g5
sg19
I1000000
sg20
I1843816
sg21
I23
sg22
I8
sg23
I378082
sg24
I213625
sg25
I2047593
sg26
I1465734
ssS'RIEKER PAULA H'
p137
(dp138
g3
I1328
sg4
I214678
sg6
I33271
sg7
I01
sg8
I-100000
sg9
S'paula.rieker@enron.com'
p139
sg11
g5
sS'shared_receipt_with_poi/to_messages'
p140
F0.947289156626506
sg13
g5
sg14
I1258
sg15
g5
sg16
I82
sg17
I1950
sg18
g5
sg19
I700000
sg20
I1918887
sg21
I35
sg22
I48
sg23
I283649
sg24
I249201
sg25
I1099100
sg26
I1635238
ssS'WHALEY DAVID A'
p141
(dp142
g3
g5
sg4
g5
sg6
g5
sg7
I00
sg8
g5
sg9
g5
sg11
g5
sS'shared_receipt_with_poi/to_messages'
p143
I0
sg13
g5
sg14
g5
sg15
g5
sg16
g5
sg17
g5
sg18
g5
sg19
g5
sg20
I98718
sg21
g5
sg22
g5
sg23
g5
sg24
g5
sg25
g5
sg26
I98718
ssS'BECK SALLY W'
p144
(dp145
g3
I7315
sg4
g5
sg6
I37172
sg7
I00
sg8
g5
sg9
S'sally.beck@enron.com'
p146
sg11
g5
sS'shared_receipt_with_poi/to_messages'
p147
F0.36076555023923446
sg13
g5
sg14
I2639
sg15
g5
sg16
I4343
sg17
I566
sg18
g5
sg19
I700000
sg20
I126027
sg21
I144
sg22
I386
sg23
I126027
sg24
I231330
sg25
I969068
sg26
g5
ssS'HAUG DAVID L'
p148
(dp149
g3
I573
sg4
g5
sg6
I475
sg7
I00
sg8
g5
sg9
S'david.haug@enron.com'
p150
sg11
g5
sS'shared_receipt_with_poi/to_messages'
p151
F0.8219895287958116
sg13
g5
sg14
I471
sg15
g5
sg16
I19
sg17
g5
sg18
g5
sg19
g5
sg20
I2217299
sg21
I4
sg22
I7
sg23
I2217299
sg24
g5
sg25
I475
sg26
g5
ssS'ECHOLS JOHN B'
p152
(dp153
g3
g5
sg4
g5
sg6
I21530
sg7
I00
sg8
g5
sg9
S'john.echols@enron.com'
p154
sg11
I2234774
sS'shared_receipt_with_poi/to_messages'
p155
I0
sg13
g5
sg14
g5
sg15
g5
sg16
g5
sg17
I53775
sg18
g5
sg19
I200000
sg20
I1008941
sg21
g5
sg22
g5
sg23
I407503
sg24
I182245
sg25
I2692324
sg26
I601438
ssS'MENDELSOHN JOHN'
p156
(dp157
g3
g5
sg4
g5
sg6
I148
sg7
I00
sg8
I-103750
sg9
g5
sg11
g5
sS'shared_receipt_with_poi/to_messages'
p158
I0
sg13
g5
sg14
g5
sg15
g5
sg16
g5
sg17
g5
sg18
I103750
sg19
g5
sg20
g5
sg21
g5
sg22
g5
sg23
g5
sg24
g5
sg25
I148
sg26
g5
ssS'HICKERSON GARY J'
p159
(dp160
g3
I1320
sg4
g5
sg6
I98849
sg7
I00
sg8
g5
sg9
S'gary.hickerson@enron.com'
p161
sg11
I69223
sS'shared_receipt_with_poi/to_messages'
p162
F0.6818181818181818
sg13
g5
sg14
I900
sg15
g5
sg16
I27
sg17
I1936
sg18
g5
sg19
I1700000
sg20
I441096
sg21
I40
sg22
I1
sg23
I441096
sg24
I211788
sg25
I2081796
sg26
g5
ssS'CLINE KENNETH W'
p163
(dp164
g3
g5
sg4
g5
sg6
g5
sg7
I00
sg8
g5
sg9
g5
sg11
g5
sS'shared_receipt_with_poi/to_messages'
p165
I0
sg13
I-472568
sg14
g5
sg15
g5
sg16
g5
sg17
g5
sg18
g5
sg19
g5
sg20
I189518
sg21
g5
sg22
g5
sg23
I662086
sg24
g5
sg25
g5
sg26
g5
ssS'LEWIS RICHARD'
p166
(dp167
g3
I952
sg4
g5
sg6
g5
sg7
I00
sg8
g5
sg9
S'richard.lewis@enron.com'
p168
sg11
g5
sS'shared_receipt_with_poi/to_messages'
p169
F0.7762605042016807
sg13
g5
sg14
I739
sg15
g5
sg16
I26
sg17
g5
sg18
g5
sg19
g5
sg20
I850477
sg21
I10
sg22
I0
sg23
g5
sg24
g5
sg25
g5
sg26
I850477
ssS'HAYES ROBERT E'
p170
(dp171
g3
I504
sg4
I7961
sg6
g5
sg7
I00
sg8
g5
sg9
S'robert.hayes@enron.com'
p172
sg11
g5
sS'shared_receipt_with_poi/to_messages'
p173
F0.0992063492063492
sg13
g5
sg14
I50
sg15
g5
sg16
I12
sg17
g5
sg18
g5
sg19
g5
sg20
I151418
sg21
I16
sg22
I0
sg23
I151418
sg24
g5
sg25
I7961
sg26
g5
ssS'MCCARTY DANNY J'
p174
(dp175
g3
I1433
sg4
g5
sg6
g5
sg7
I00
sg8
g5
sg9
S'danny.mccarty@enron.com'
p176
sg11
g5
sS'shared_receipt_with_poi/to_messages'
p177
F0.35450104675505933
sg13
g5
sg14
I508
sg15
g5
sg16
I215
sg17
g5
sg18
g5
sg19
g5
sg20
I758931
sg21
I25
sg22
I2
sg23
I94556
sg24
g5
sg25
g5
sg26
I664375
ssS'KOPPER MICHAEL J'
p178
(dp179
g3
g5
sg4
g5
sg6
I118134
sg7
I01
sg8
g5
sg9
S'michael.kopper@enron.com'
p180
sg11
I602671
sS'shared_receipt_with_poi/to_messages'
p181
I0
sg13
g5
sg14
g5
sg15
g5
sg16
g5
sg17
I907502
sg18
g5
sg19
I800000
sg20
I985032
sg21
g5
sg22
g5
sg23
I985032
sg24
I224305
sg25
I2652612
sg26
g5
ssS'LEFF DANIEL P'
p182
(dp183
g3
I2822
sg4
g5
sg6
g5
sg7
I00
sg8
g5
sg9
S'dan.leff@enron.com'
p184
sg11
I1387399
sS'shared_receipt_with_poi/to_messages'
p185
F0.9468462083628633
sg13
g5
sg14
I2672
sg15
g5
sg16
I63
sg17
I3083
sg18
g5
sg19
I1000000
sg20
I360528
sg21
I67
sg22
I14
sg23
I360528
sg24
I273746
sg25
I2664228
sg26
g5
ssS'BERBERIAN DAVID'
p186
(dp187
g3
g5
sg4
g5
sg6
I11892
sg7
I00
sg8
g5
sg9
S'david.berberian@enron.com'
p188
sg11
g5
sS'shared_receipt_with_poi/to_messages'
p189
I0
sg13
g5
sg14
g5
sg15
g5
sg16
g5
sg17
g5
sg18
g5
sg19
g5
sg20
I2493616
sg21
g5
sg22
g5
sg23
I869220
sg24
I216582
sg25
I228474
sg26
I1624396
ssS'DETMERING TIMOTHY J'
p190
(dp191
g3
g5
sg4
I875307
sg6
I52255
sg7
I00
sg8
I-775241
sg9
S'timothy.detmering@enron.com'
p192
sg11
I415657
sS'shared_receipt_with_poi/to_messages'
p193
I0
sg13
I-315068
sg14
g5
sg15
g5
sg16
g5
sg17
I1105
sg18
g5
sg19
I425000
sg20
I2027865
sg21
g5
sg22
g5
sg23
I315068
sg24
I210500
sg25
I1204583
sg26
I2027865
ssS'WAKEHAM JOHN'
p194
(dp195
g3
g5
sg4
g5
sg6
I103773
sg7
I00
sg8
g5
sg9
g5
sg11
g5
sS'shared_receipt_with_poi/to_messages'
p196
I0
sg13
g5
sg14
g5
sg15
g5
sg16
g5
sg17
g5
sg18
I109298
sg19
g5
sg20
g5
sg21
g5
sg22
g5
sg23
g5
sg24
g5
sg25
I213071
sg26
g5
ssS'POWERS WILLIAM'
p197
(dp198
g3
I653
sg4
g5
sg6
g5
sg7
I00
sg8
I-17500
sg9
S'ken.powers@enron.com'
p199
sg11
g5
sS'shared_receipt_with_poi/to_messages'
p200
F0.018376722817764167
sg13
g5
sg14
I12
sg15
g5
sg16
I26
sg17
g5
sg18
I17500
sg19
g5
sg20
g5
sg21
I0
sg22
I0
sg23
g5
sg24
g5
sg25
g5
sg26
g5
ssS'GOLD JOSEPH'
p201
(dp202
g3
g5
sg4
g5
sg6
g5
sg7
I00
sg8
g5
sg9
S'joe.gold@enron.com'
p203
sg11
I304805
sS'shared_receipt_with_poi/to_messages'
p204
I0
sg13
g5
sg14
g5
sg15
g5
sg16
g5
sg17
I819288
sg18
g5
sg19
I750000
sg20
I877611
sg21
g5
sg22
g5
sg23
I441096
sg24
I272880
sg25
I2146973
sg26
I436515
ssS'BANNANTINE JAMES M'
p205
(dp206
g3
I566
sg4
g5
sg6
I56301
sg7
I00
sg8
I-5104
sg9
S'james.bannantine@enron.com'
p207
sg11
g5
sS'shared_receipt_with_poi/to_messages'
p208
F0.8215547703180212
sg13
I-560222
sg14
I465
sg15
g5
sg16
I29
sg17
I864523
sg18
g5
sg19
g5
sg20
I5243487
sg21
I39
sg22
I0
sg23
I1757552
sg24
I477
sg25
I916197
sg26
I4046157
ssS'DUNCAN JOHN H'
p209
(dp210
g3
g5
sg4
g5
sg6
g5
sg7
I00
sg8
I-25000
sg9
g5
sg11
g5
sS'shared_receipt_with_poi/to_messages'
p211
I0
sg13
g5
sg14
g5
sg15
g5
sg16
g5
sg17
g5
sg18
I102492
sg19
g5
sg20
I371750
sg21
g5
sg22
g5
sg23
g5
sg24
g5
sg25
I77492
sg26
I371750
ssS'SHAPIRO RICHARD S'
p212
(dp213
g3
I15149
sg4
g5
sg6
I137767
sg7
I00
sg8
g5
sg9
S'richard.shapiro@enron.com'
p214
sg11
g5
sS'shared_receipt_with_poi/to_messages'
p215
F0.29883160604660375
sg13
g5
sg14
I4527
sg15
g5
sg16
I1215
sg17
I705
sg18
g5
sg19
I650000
sg20
I987001
sg21
I74
sg22
I65
sg23
I379164
sg24
I269076
sg25
I1057548
sg26
I607837
ssS'SHERRIFF JOHN R'
p216
(dp217
g3
I3187
sg4
g5
sg6
g5
sg7
I00
sg8
g5
sg9
S'john.sherriff@enron.com'
p218
sg11
I554422
sS'shared_receipt_with_poi/to_messages'
p219
F0.6598682146219015
sg13
g5
sg14
I2103
sg15
g5
sg16
I92
sg17
I1852186
sg18
g5
sg19
I1500000
sg20
I3128982
sg21
I28
sg22
I23
sg23
I1293424
sg24
I428780
sg25
I4335388
sg26
I1835558
ssS'SHELBY REX'
p220
(dp221
g3
I225
sg4
g5
sg6
I22884
sg7
I01
sg8
I-4167
sg9
S'rex.shelby@enron.com'
p222
sg11
g5
sS'shared_receipt_with_poi/to_messages'
p223
F0.40444444444444444
sg13
g5
sg14
I91
sg15
g5
sg16
I39
sg17
I1573324
sg18
g5
sg19
I200000
sg20
I2493616
sg21
I13
sg22
I14
sg23
I869220
sg24
I211844
sg25
I2003885
sg26
I1624396
ssS'LEMAISTRE CHARLES'
p224
(dp225
g3
g5
sg4
g5
sg6
g5
sg7
I00
sg8
I-25000
sg9
g5
sg11
g5
sS'shared_receipt_with_poi/to_messages'
p226
I0
sg13
g5
sg14
g5
sg15
g5
sg16
g5
sg17
g5
sg18
I112492
sg19
g5
sg20
I412878
sg21
g5
sg22
g5
sg23
g5
sg24
g5
sg25
I87492
sg26
I412878
ssS'DEFFNER JOSEPH M'
p227
(dp228
g3
I714
sg4
g5
sg6
I41626
sg7
I00
sg8
g5
sg9
S'joseph.deffner@enron.com'
p229
sg11
I335349
sS'shared_receipt_with_poi/to_messages'
p230
F0.773109243697479
sg13
g5
sg14
I552
sg15
g5
sg16
I74
sg17
I25553
sg18
g5
sg19
I600000
sg20
I159211
sg21
I115
sg22
I4
sg23
I141833
sg24
I206121
sg25
I1208649
sg26
I17378
ssS'KISHKILL JOSEPH G'
p231
(dp232
g3
g5
sg4
g5
sg6
I116335
sg7
I00
sg8
I-51042
sg9
S'joe.kishkill@enron.com'
p233
sg11
g5
sS'shared_receipt_with_poi/to_messages'
p234
I0
sg13
g5
sg14
g5
sg15
g5
sg16
g5
sg17
I465357
sg18
g5
sg19
g5
sg20
I1034346
sg21
g5
sg22
g5
sg23
I1034346
sg24
I174246
sg25
I704896
sg26
g5
ssS'WHALLEY LAWRENCE G'
p235
(dp236
g3
I6019
sg4
g5
sg6
I57838
sg7
I00
sg8
g5
sg9
S'greg.whalley@enron.com'
p237
sg11
I808346
sS'shared_receipt_with_poi/to_messages'
p238
F0.6512709752450573
sg13
g5
sg14
I3920
sg15
g5
sg16
I556
sg17
I301026
sg18
g5
sg19
I3000000
sg20
I6079137
sg21
I186
sg22
I24
sg23
I2796177
sg24
I510364
sg25
I4677574
sg26
I3282960
ssS'MCCONNELL MICHAEL S'
p239
(dp240
g3
I3329
sg4
g5
sg6
I81364
sg7
I00
sg8
g5
sg9
S'mike.mcconnell@enron.com'
p241
sg11
I554422
sS'shared_receipt_with_poi/to_messages'
p242
F0.657554821267648
sg13
g5
sg14
I2189
sg15
g5
sg16
I2742
sg17
I540
sg18
g5
sg19
I1100000
sg20
I3101279
sg21
I92
sg22
I194
sg23
I1478269
sg24
I365038
sg25
I2101364
sg26
I1623010
ssS'PIRO JIM'
p243
(dp244
g3
I58
sg4
g5
sg6
g5
sg7
I00
sg8
g5
sg9
S'jim.piro@enron.com'
p245
sg11
g5
sS'shared_receipt_with_poi/to_messages'
p246
F0.05172413793103448
sg13
g5
sg14
I3
sg15
g5
sg16
I16
sg17
g5
sg18
g5
sg19
g5
sg20
I47304
sg21
I0
sg22
I1
sg23
I47304
sg24
g5
sg25
g5
sg26
g5
ssS'DELAINEY DAVID W'
p247
(dp248
g3
I3093
sg4
g5
sg6
I86174
sg7
I01
sg8
g5
sg9
S'david.delainey@enron.com'
p249
sg11
I1294981
sS'shared_receipt_with_poi/to_messages'
p250
F0.6779825412221144
sg13
g5
sg14
I2097
sg15
g5
sg16
I3069
sg17
I1661
sg18
g5
sg19
I3000000
sg20
I3614261
sg21
I66
sg22
I609
sg23
I1323148
sg24
I365163
sg25
I4747979
sg26
I2291113
ssS'SULLIVAN-SHAKLOVITZ COLLEEN'
p251
(dp252
g3
g5
sg4
I181993
sg6
g5
sg7
I00
sg8
g5
sg9
g5
sg11
I554422
sS'shared_receipt_with_poi/to_messages'
p253
I0
sg13
g5
sg14
g5
sg15
g5
sg16
g5
sg17
I162
sg18
g5
sg19
I100000
sg20
I1362375
sg21
g5
sg22
g5
sg23
g5
sg24
I162779
sg25
I999356
sg26
I1362375
ssS'WROBEL BRUCE'
p254
(dp255
g3
g5
sg4
g5
sg6
g5
sg7
I00
sg8
g5
sg9
g5
sg11
g5
sS'shared_receipt_with_poi/to_messages'
p256
I0
sg13
g5
sg14
g5
sg15
g5
sg16
g5
sg17
g5
sg18
g5
sg19
g5
sg20
I139130
sg21
g5
sg22
g5
sg23
g5
sg24
g5
sg25
g5
sg26
I139130
ssS'LINDHOLM TOD A'
p257
(dp258
g3
g5
sg4
I204075
sg6
I57727
sg7
I00
sg8
g5
sg9
S'tod.lindholm@enron.com'
p259
sg11
I175000
sS'shared_receipt_with_poi/to_messages'
p260
I0
sg13
g5
sg14
g5
sg15
g5
sg16
g5
sg17
I2630
sg18
g5
sg19
I200000
sg20
I3064208
sg21
g5
sg22
g5
sg23
I514847
sg24
I236457
sg25
I875889
sg26
I2549361
ssS'MEYER JEROME J'
p261
(dp262
g3
g5
sg4
g5
sg6
I2151
sg7
I00
sg8
I-38346
sg9
g5
sg11
g5
sS'shared_receipt_with_poi/to_messages'
p263
I0
sg13
g5
sg14
g5
sg15
g5
sg16
g5
sg17
g5
sg18
I38346
sg19
g5
sg20
g5
sg21
g5
sg22
g5
sg23
g5
sg24
g5
sg25
I2151
sg26
g5
ssS'LAY KENNETH L'
p264
(dp265
g3
I4273
sg4
I202911
sg6
I99832
sg7
I01
sg8
I-300000
sg9
S'kenneth.lay@enron.com'
p266
sg11
I3600000
sS'shared_receipt_with_poi/to_messages'
p267
F0.5642405803884858
sg13
g5
sg14
I2411
sg15
I81525000
sg16
I36
sg17
I10359729
sg18
g5
sg19
I7000000
sg20
I49110078
sg21
I123
sg22
I16
sg23
I14761694
sg24
I1072321
sg25
I103559793
sg26
I34348384
ssS'BUTTS ROBERT H'
p268
(dp269
g3
g5
sg4
g5
sg6
I9410
sg7
I00
sg8
I-75000
sg9
S'bob.butts@enron.com'
p270
sg11
I175000
sS'shared_receipt_with_poi/to_messages'
p271
I0
sg13
g5
sg14
g5
sg15
g5
sg16
g5
sg17
I150656
sg18
g5
sg19
I750000
sg20
I417619
sg21
g5
sg22
g5
sg23
I417619
sg24
I261516
sg25
I1271582
sg26
g5
ssS'OLSON CINDY K'
p272
(dp273
g3
I1184
sg4
I77716
sg6
I63791
sg7
I00
sg8
g5
sg9
S'cindy.olson@enron.com'
p274
sg11
I100000
sS'shared_receipt_with_poi/to_messages'
p275
F0.722972972972973
sg13
g5
sg14
I856
sg15
g5
sg16
I52
sg17
I972
sg18
g5
sg19
I750000
sg20
I2606763
sg21
I20
sg22
I15
sg23
I969729
sg24
I329078
sg25
I1321557
sg26
I1637034
ssS'MCDONALD REBECCA'
p276
(dp277
g3
I894
sg4
g5
sg6
g5
sg7
I00
sg8
g5
sg9
S'rebecca.mcdonald@enron.com'
p278
sg11
g5
sS'shared_receipt_with_poi/to_messages'
p279
F0.8053691275167785
sg13
g5
sg14
I720
sg15
g5
sg16
I13
sg17
g5
sg18
g5
sg19
g5
sg20
I1691366
sg21
I54
sg22
I1
sg23
I934065
sg24
g5
sg25
g5
sg26
I757301
ssS'CUMBERLAND MICHAEL S'
p280
(dp281
g3
g5
sg4
g5
sg6
I22344
sg7
I00
sg8
g5
sg9
g5
sg11
I275000
sS'shared_receipt_with_poi/to_messages'
p282
I0
sg13
g5
sg14
g5
sg15
g5
sg16
g5
sg17
I713
sg18
g5
sg19
I325000
sg20
I207940
sg21
g5
sg22
g5
sg23
I207940
sg24
I184899
sg25
I807956
sg26
g5
ssS'GAHN ROBERT S'
p283
(dp284
g3
g5
sg4
I73122
sg6
I50080
sg7
I00
sg8
I-1042
sg9
g5
sg11
g5
sS'shared_receipt_with_poi/to_messages'
p285
I0
sg13
g5
sg14
g5
sg15
g5
sg16
g5
sg17
I76547
sg18
g5
sg19
I509870
sg20
I318607
sg21
g5
sg22
g5
sg23
I235370
sg24
I192008
sg25
I900585
sg26
I83237
ssS'MCCLELLAN GEORGE'
p286
(dp287
g3
I1744
sg4
g5
sg6
I228763
sg7
I00
sg8
I-125000
sg9
S'george.mcclellan@enron.com'
p288
sg11
g5
sS'shared_receipt_with_poi/to_messages'
p289
F0.8423165137614679
sg13
g5
sg14
I1469
sg15
g5
sg16
I49
sg17
I51587
sg18
g5
sg19
I900000
sg20
I947861
sg21
I52
sg22
I0
sg23
I441096
sg24
I263413
sg25
I1318763
sg26
I506765
ssS'HERMANN ROBERT J'
p290
(dp291
g3
g5
sg4
g5
sg6
I48357
sg7
I00
sg8
I-280000
sg9
S'robert.hermann@enron.com'
p292
sg11
I150000
sS'shared_receipt_with_poi/to_messages'
p293
I0
sg13
g5
sg14
g5
sg15
g5
sg16
g5
sg17
I416441
sg18
g5
sg19
I700000
sg20
I668132
sg21
g5
sg22
g5
sg23
I480632
sg24
I262663
sg25
I1297461
sg26
I187500
ssS'SCRIMSHAW MATTHEW'
p294
(dp295
g3
g5
sg4
g5
sg6
g5
sg7
I00
sg8
g5
sg9
S'matthew.scrimshaw@enron.com'
p296
sg11
g5
sS'shared_receipt_with_poi/to_messages'
p297
I0
sg13
g5
sg14
g5
sg15
g5
sg16
g5
sg17
g5
sg18
g5
sg19
g5
sg20
I759557
sg21
g5
sg22
g5
sg23
g5
sg24
g5
sg25
g5
sg26
I759557
ssS'GATHMANN WILLIAM D'
p298
(dp299
g3
g5
sg4
g5
sg6
g5
sg7
I00
sg8
g5
sg9
g5
sg11
g5
sS'shared_receipt_with_poi/to_messages'
p300
I0
sg13
I-72419
sg14
g5
sg15
g5
sg16
g5
sg17
g5
sg18
g5
sg19
g5
sg20
I1945360
sg21
g5
sg22
g5
sg23
I264013
sg24
g5
sg25
g5
sg26
I1753766
ssS'HAEDICKE MARK E'
p301
(dp302
g3
I4009
sg4
I2157527
sg6
I76169
sg7
I00
sg8
I-934484
sg9
S'mark.haedicke@enron.com'
p303
sg11
I983346
sS'shared_receipt_with_poi/to_messages'
p304
F0.4607133948615615
sg13
I-329825
sg14
I1847
sg15
g5
sg16
I1941
sg17
I52382
sg18
g5
sg19
I1150000
sg20
I803094
sg21
I180
sg22
I61
sg23
I524169
sg24
I374125
sg25
I3859065
sg26
I608750
ssS'BOWEN JR RAYMOND M'
p305
(dp306
g3
I1858
sg4
g5
sg6
I65907
sg7
I01
sg8
I-833
sg9
S'raymond.bowen@enron.com'
p307
sg11
I974293
sS'shared_receipt_with_poi/to_messages'
p308
F0.8573735199138859
sg13
g5
sg14
I1593
sg15
g5
sg16
I27
sg17
I1621
sg18
g5
sg19
I1350000
sg20
I252055
sg21
I140
sg22
I15
sg23
I252055
sg24
I278601
sg25
I2669589
sg26
g5
ssS'GILLIS JOHN'
p309
(dp310
g3
g5
sg4
g5
sg6
g5
sg7
I00
sg8
g5
sg9
g5
sg11
g5
sS'shared_receipt_with_poi/to_messages'
p311
I0
sg13
g5
sg14
g5
sg15
g5
sg16
g5
sg17
g5
sg18
g5
sg19
g5
sg20
I85641
sg21
g5
sg22
g5
sg23
I75838
sg24
g5
sg25
g5
sg26
I9803
ssS'FITZGERALD JAY L'
p312
(dp313
g3
I936
sg4
g5
sg6
I23870
sg7
I00
sg8
g5
sg9
S'jay.fitzgerald@enron.com'
p314
sg11
I556416
sS'shared_receipt_with_poi/to_messages'
p315
F0.7724358974358975
sg13
g5
sg14
I723
sg15
g5
sg16
I16
sg17
I285414
sg18
g5
sg19
I350000
sg20
I1621236
sg21
I1
sg22
I8
sg23
I956775
sg24
I199157
sg25
I1414857
sg26
I664461
ssS'MORAN MICHAEL P'
p316
(dp317
g3
I672
sg4
g5
sg6
g5
sg7
I00
sg8
g5
sg9
S'michael.moran@enron.com'
p318
sg11
g5
sS'shared_receipt_with_poi/to_messages'
p319
F0.18898809523809523
sg13
g5
sg14
I127
sg15
g5
sg16
I19
sg17
g5
sg18
g5
sg19
g5
sg20
I221141
sg21
I0
sg22
I0
sg23
I161602
sg24
g5
sg25
g5
sg26
I59539
ssS'REDMOND BRIAN L'
p320
(dp321
g3
I1671
sg4
g5
sg6
I14689
sg7
I00
sg8
g5
sg9
S'brian.redmond@enron.com'
p322
sg11
g5
sS'shared_receipt_with_poi/to_messages'
p323
F0.6361460203470976
sg13
g5
sg14
I1063
sg15
g5
sg16
I221
sg17
g5
sg18
g5
sg19
g5
sg20
I7890324
sg21
I204
sg22
I49
sg23
I381285
sg24
I96840
sg25
I111529
sg26
I7509039
ssS'BAZELIDES PHILIP J'
p324
(dp325
g3
g5
sg4
I684694
sg6
g5
sg7
I00
sg8
g5
sg9
g5
sg11
I93750
sS'shared_receipt_with_poi/to_messages'
p326
I0
sg13
g5
sg14
g5
sg15
g5
sg16
g5
sg17
I874
sg18
g5
sg19
g5
sg20
I1599641
sg21
g5
sg22
g5
sg23
g5
sg24
I80818
sg25
I860136
sg26
I1599641
ssS'BELDEN TIMOTHY N'
p327
(dp328
g3
I7991
sg4
I2144013
sg6
I17355
sg7
I01
sg8
I-2334434
sg9
S'tim.belden@enron.com'
p329
sg11
g5
sS'shared_receipt_with_poi/to_messages'
p330
F0.6909022650481792
sg13
g5
sg14
I5521
sg15
g5
sg16
I484
sg17
I210698
sg18
g5
sg19
I5249999
sg20
I1110705
sg21
I228
sg22
I108
sg23
I157569
sg24
I213999
sg25
I5501630
sg26
I953136
ssS'DURAN WILLIAM D'
p331
(dp332
g3
I904
sg4
g5
sg6
I25785
sg7
I00
sg8
g5
sg9
S'w.duran@enron.com'
p333
sg11
I1105218
sS'shared_receipt_with_poi/to_messages'
p334
F0.6626106194690266
sg13
g5
sg14
I599
sg15
g5
sg16
I12
sg17
I1568
sg18
g5
sg19
I750000
sg20
I1640910
sg21
I106
sg22
I3
sg23
I189041
sg24
I210692
sg25
I2093263
sg26
I1451869
ssS'THORN TERENCE H'
p335
(dp336
g3
I266
sg4
I16586
sg6
I46145
sg7
I00
sg8
g5
sg9
S'terence.thorn@enron.com'
p337
sg11
I200000
sS'shared_receipt_with_poi/to_messages'
p338
F0.2744360902255639
sg13
g5
sg14
I73
sg15
g5
sg16
I41
sg17
I426629
sg18
g5
sg19
g5
sg20
I4817796
sg21
I0
sg22
I0
sg23
I365320
sg24
I222093
sg25
I911453
sg26
I4452476
ssS'FASTOW ANDREW S'
p339
(dp340
g3
g5
sg4
g5
sg6
I55921
sg7
I01
sg8
I-1386055
sg9
S'andrew.fastow@enron.com'
p341
sg11
I1736055
sS'shared_receipt_with_poi/to_messages'
p342
I0
sg13
g5
sg14
g5
sg15
g5
sg16
g5
sg17
I277464
sg18
g5
sg19
I1300000
sg20
I1794412
sg21
g5
sg22
g5
sg23
I1794412
sg24
I440698
sg25
I2424083
sg26
g5
ssS'FOY JOE'
p343
(dp344
g3
I57
sg4
I181755
sg6
g5
sg7
I00
sg8
g5
sg9
S'tracy.foy@enron.com'
p345
sg11
g5
sS'shared_receipt_with_poi/to_messages'
p346
F0.03508771929824561
sg13
g5
sg14
I2
sg15
g5
sg16
I13
sg17
g5
sg18
g5
sg19
g5
sg20
I343434
sg21
I0
sg22
I0
sg23
g5
sg24
g5
sg25
I181755
sg26
I343434
ssS'CALGER CHRISTOPHER F'
p347
(dp348
g3
I2598
sg4
g5
sg6
I35818
sg7
I01
sg8
I-262500
sg9
S'christopher.calger@enron.com'
p349
sg11
I375304
sS'shared_receipt_with_poi/to_messages'
p350
F0.8421862971516552
sg13
g5
sg14
I2188
sg15
g5
sg16
I144
sg17
I486
sg18
g5
sg19
I1250000
sg20
I126027
sg21
I199
sg22
I25
sg23
I126027
sg24
I240189
sg25
I1639297
sg26
g5
ssS'RICE KENNETH D'
p351
(dp352
g3
I905
sg4
g5
sg6
I46950
sg7
I01
sg8
I-3504386
sg9
S'ken.rice@enron.com'
p353
sg11
I1617011
sS'shared_receipt_with_poi/to_messages'
p354
F0.9546961325966851
sg13
g5
sg14
I864
sg15
g5
sg16
I18
sg17
I174839
sg18
g5
sg19
I1750000
sg20
I22542539
sg21
I42
sg22
I4
sg23
I2748364
sg24
I420636
sg25
I505050
sg26
I19794175
ssS'COX DAVID'
p355
(dp356
g3
I102
sg4
g5
sg6
I27861
sg7
I00
sg8
I-41250
sg9
S'chip.cox@enron.com'
p357
sg11
g5
sS'shared_receipt_with_poi/to_messages'
p358
F0.696078431372549
sg13
g5
sg14
I71
sg15
g5
sg16
I33
sg17
I494
sg18
g5
sg19
I800000
sg20
I495633
sg21
I0
sg22
I4
sg23
I378082
sg24
I314288
sg25
I1101393
sg26
I117551
ssS'OVERDYKE JR JERE C'
p359
(dp360
g3
g5
sg4
g5
sg6
I18834
sg7
I00
sg8
g5
sg9
S'jere.overdyke@enron.com'
p361
sg11
I135836
sS'shared_receipt_with_poi/to_messages'
p362
I0
sg13
g5
sg14
g5
sg15
g5
sg16
g5
sg17
I176
sg18
g5
sg19
g5
sg20
I7307594
sg21
g5
sg22
g5
sg23
I2041016
sg24
I94941
sg25
I249787
sg26
I5266578
ssS'PEREIRA PAULO V. FERRAZ'
p363
(dp364
g3
g5
sg4
g5
sg6
I27942
sg7
I00
sg8
I-101250
sg9
g5
sg11
g5
sS'shared_receipt_with_poi/to_messages'
p365
I0
sg13
g5
sg14
g5
sg15
g5
sg16
g5
sg17
g5
sg18
I101250
sg19
g5
sg20
g5
sg21
g5
sg22
g5
sg23
g5
sg24
g5
sg25
I27942
sg26
g5
ssS'STABLER FRANK'
p366
(dp367
g3
g5
sg4
g5
sg6
I16514
sg7
I00
sg8
g5
sg9
S'frank.stabler@enron.com'
p368
sg11
g5
sS'shared_receipt_with_poi/to_messages'
p369
I0
sg13
g5
sg14
g5
sg15
g5
sg16
g5
sg17
I356071
sg18
g5
sg19
I500000
sg20
I511734
sg21
g5
sg22
g5
sg23
I511734
sg24
I239502
sg25
I1112087
sg26
g5
ssS'SKILLING JEFFREY K'
p370
(dp371
g3
I3627
sg4
g5
sg6
I29336
sg7
I01
sg8
g5
sg9
S'jeff.skilling@enron.com'
p372
sg11
I1920000
sS'shared_receipt_with_poi/to_messages'
p373
F0.5629997242900469
sg13
g5
sg14
I2042
sg15
g5
sg16
I108
sg17
I22122
sg18
g5
sg19
I5600000
sg20
I26093672
sg21
I88
sg22
I30
sg23
I6843672
sg24
I1111258
sg25
I8682716
sg26
I19250000
ssS'BLAKE JR. NORMAN P'
p374
(dp375
g3
g5
sg4
g5
sg6
I1279
sg7
I00
sg8
I-113784
sg9
g5
sg11
g5
sS'shared_receipt_with_poi/to_messages'
p376
I0
sg13
g5
sg14
g5
sg15
g5
sg16
g5
sg17
g5
sg18
I113784
sg19
g5
sg20
g5
sg21
g5
sg22
g5
sg23
g5
sg24
g5
sg25
I1279
sg26
g5
ssS'SHERRICK JEFFREY B'
p377
(dp378
g3
I613
sg4
g5
sg6
g5
sg7
I00
sg8
g5
sg9
S'jeffrey.sherrick@enron.com'
p379
sg11
g5
sS'shared_receipt_with_poi/to_messages'
p380
F0.9510603588907015
sg13
g5
sg14
I583
sg15
g5
sg16
I25
sg17
g5
sg18
g5
sg19
g5
sg20
I1832468
sg21
I39
sg22
I18
sg23
I405999
sg24
g5
sg25
g5
sg26
I1426469
ssS'PRENTICE JAMES'
p381
(dp382
g3
g5
sg4
I564348
sg6
g5
sg7
I00
sg8
g5
sg9
S'james.prentice@enron.com'
p383
sg11
g5
sS'shared_receipt_with_poi/to_messages'
p384
I0
sg13
g5
sg14
g5
sg15
g5
sg16
g5
sg17
g5
sg18
g5
sg19
g5
sg20
I1095040
sg21
g5
sg22
g5
sg23
I208809
sg24
g5
sg25
I564348
sg26
I886231
ssS'GRAY RODNEY'
p385
(dp386
g3
g5
sg4
I93585
sg6
g5
sg7
I00
sg8
g5
sg9
g5
sg11
I365625
sS'shared_receipt_with_poi/to_messages'
p387
I0
sg13
g5
sg14
g5
sg15
g5
sg16
g5
sg17
I680833
sg18
g5
sg19
g5
sg20
g5
sg21
g5
sg22
g5
sg23
g5
sg24
I6615
sg25
I1146658
sg26
g5
ssS'PICKERING MARK R'
p388
(dp389
g3
I898
sg4
g5
sg6
I31653
sg7
I00
sg8
g5
sg9
S'mark.pickering@enron.com'
p390
sg11
g5
sS'shared_receipt_with_poi/to_messages'
p391
F0.8106904231625836
sg13
g5
sg14
I728
sg15
I400000
sg16
I67
sg17
g5
sg18
g5
sg19
I300000
sg20
I28798
sg21
I7
sg22
I0
sg23
g5
sg24
I655037
sg25
I1386690
sg26
I28798
ssS'NOLES JAMES L'
p392
(dp393
g3
g5
sg4
I774401
sg6
g5
sg7
I00
sg8
g5
sg9
g5
sg11
g5
sS'shared_receipt_with_poi/to_messages'
p394
I0
sg13
I-94556
sg14
g5
sg15
g5
sg16
g5
sg17
g5
sg18
g5
sg19
g5
sg20
I368705
sg21
g5
sg22
g5
sg23
I463261
sg24
g5
sg25
I774401
sg26
g5
ssS'KEAN STEVEN J'
p395
(dp396
g3
I12754
sg4
g5
sg6
I41953
sg7
I00
sg8
g5
sg9
S'steven.kean@enron.com'
p397
sg11
I300000
sS'shared_receipt_with_poi/to_messages'
p398
F0.2853222518425592
sg13
g5
sg14
I3639
sg15
g5
sg16
I6759
sg17
I1231
sg18
g5
sg19
I1000000
sg20
I6153642
sg21
I140
sg22
I387
sg23
I4131594
sg24
I404338
sg25
I1747522
sg26
I2022048
ssS'FOWLER PEGGY'
p399
(dp400
g3
I517
sg4
g5
sg6
g5
sg7
I00
sg8
g5
sg9
S'kulvinder.fowler@enron.com'
p401
sg11
g5
sS'shared_receipt_with_poi/to_messages'
p402
F0.019342359767891684
sg13
g5
sg14
I10
sg15
g5
sg16
I36
sg17
g5
sg18
g5
sg19
g5
sg20
I1884748
sg21
I0
sg22
I0
sg23
I560170
sg24
g5
sg25
g5
sg26
I1324578
ssS'WASAFF GEORGE'
p403
(dp404
g3
I400
sg4
I831299
sg6
g5
sg7
I00
sg8
I-583325
sg9
S'george.wasaff@enron.com'
p405
sg11
I200000
sS'shared_receipt_with_poi/to_messages'
p406
F0.8425
sg13
g5
sg14
I337
sg15
g5
sg16
I30
sg17
I1425
sg18
g5
sg19
I325000
sg20
I2056427
sg21
I22
sg22
I7
sg23
I388167
sg24
I259996
sg25
I1034395
sg26
I1668260
ssS'WHITE JR THOMAS E'
p407
(dp408
g3
g5
sg4
g5
sg6
I81353
sg7
I00
sg8
g5
sg9
S'thomas.white@enron.com'
p409
sg11
g5
sS'shared_receipt_with_poi/to_messages'
p410
I0
sg13
g5
sg14
g5
sg15
g5
sg16
g5
sg17
I1085463
sg18
g5
sg19
I450000
sg20
I15144123
sg21
g5
sg22
g5
sg23
I13847074
sg24
I317543
sg25
I1934359
sg26
I1297049
ssS'CHRISTODOULOU DIOMEDES'
p411
(dp412
g3
g5
sg4
g5
sg6
g5
sg7
I00
sg8
g5
sg9
S'diomedes.christodoulou@enron.com'
p413
sg11
g5
sS'shared_receipt_with_poi/to_messages'
p414
I0
sg13
g5
sg14
g5
sg15
g5
sg16
g5
sg17
g5
sg18
g5
sg19
g5
sg20
I6077885
sg21
g5
sg22
g5
sg23
I950730
sg24
g5
sg25
g5
sg26
I5127155
ssS'ALLEN PHILLIP K'
p415
(dp416
g3
I2902
sg4
I2869717
sg6
I13868
sg7
I00
sg8
I-3081055
sg9
S'phillip.allen@enron.com'
p417
sg11
I304805
sS'shared_receipt_with_poi/to_messages'
p418
F0.4848380427291523
sg13
I-126027
sg14
I1407
sg15
g5
sg16
I2195
sg17
I152
sg18
g5
sg19
I4175000
sg20
I1729541
sg21
I47
sg22
I65
sg23
I126027
sg24
I201955
sg25
I4484442
sg26
I1729541
ssS'SHARP VICTORIA T'
p419
(dp420
g3
I3136
sg4
I187469
sg6
I116337
sg7
I00
sg8
g5
sg9
S'vicki.sharp@enron.com'
p421
sg11
I422158
sS'shared_receipt_with_poi/to_messages'
p422
F0.7898596938775511
sg13
g5
sg14
I2477
sg15
g5
sg16
I136
sg17
I2401
sg18
g5
sg19
I600000
sg20
I494136
sg21
I24
sg22
I6
sg23
I213063
sg24
I248146
sg25
I1576511
sg26
I281073
ssS'JAEDICKE ROBERT'
p423
(dp424
g3
g5
sg4
g5
sg6
g5
sg7
I00
sg8
I-25000
sg9
g5
sg11
g5
sS'shared_receipt_with_poi/to_messages'
p425
I0
sg13
I-44093
sg14
g5
sg15
g5
sg16
g5
sg17
g5
sg18
I108750
sg19
g5
sg20
I431750
sg21
g5
sg22
g5
sg23
I44093
sg24
g5
sg25
I83750
sg26
I431750
ssS'WINOKUR JR. HERBERT S'
p426
(dp427
g3
g5
sg4
g5
sg6
I1413
sg7
I00
sg8
I-25000
sg9
g5
sg11
g5
sS'shared_receipt_with_poi/to_messages'
p428
I0
sg13
g5
sg14
g5
sg15
g5
sg16
g5
sg17
g5
sg18
I108579
sg19
g5
sg20
g5
sg21
g5
sg22
g5
sg23
g5
sg24
g5
sg25
I84992
sg26
g5
ssS'BROWN MICHAEL'
p429
(dp430
g3
I1486
sg4
g5
sg6
I49288
sg7
I00
sg8
g5
sg9
S'michael.brown@enron.com'
p431
sg11
g5
sS'shared_receipt_with_poi/to_messages'
p432
F0.5121130551816958
sg13
g5
sg14
I761
sg15
g5
sg16
I41
sg17
g5
sg18
g5
sg19
g5
sg20
g5
sg21
I13
sg22
I1
sg23
g5
sg24
g5
sg25
I49288
sg26
g5
ssS'BADUM JAMES P'
p433
(dp434
g3
g5
sg4
I178980
sg6
I3486
sg7
I00
sg8
g5
sg9
g5
sg11
g5
sS'shared_receipt_with_poi/to_messages'
p435
I0
sg13
g5
sg14
g5
sg15
g5
sg16
g5
sg17
g5
sg18
g5
sg19
g5
sg20
I257817
sg21
g5
sg22
g5
sg23
g5
sg24
g5
sg25
I182466
sg26
I257817
ssS'HUGHES JAMES A'
p436
(dp437
g3
I719
sg4
g5
sg6
g5
sg7
I00
sg8
g5
sg9
S'james.hughes@enron.com'
p438
sg11
g5
sS'shared_receipt_with_poi/to_messages'
p439
F0.8191933240611962
sg13
g5
sg14
I589
sg15
g5
sg16
I34
sg17
g5
sg18
g5
sg19
g5
sg20
I1118394
sg21
I35
sg22
I5
sg23
I363428
sg24
g5
sg25
g5
sg26
I754966
ssS'REYNOLDS LAWRENCE'
p440
(dp441
g3
g5
sg4
I51365
sg6
I8409
sg7
I00
sg8
I-200000
sg9
g5
sg11
I156250
sS'shared_receipt_with_poi/to_messages'
p442
I0
sg13
I-140264
sg14
g5
sg15
g5
sg16
g5
sg17
I202052
sg18
g5
sg19
I100000
sg20
I4221891
sg21
g5
sg22
g5
sg23
I201483
sg24
I76399
sg25
I394475
sg26
I4160672
ssS'DIMICHELE RICHARD G'
p443
(dp444
g3
g5
sg4
g5
sg6
I35812
sg7
I00
sg8
g5
sg9
S'richard.dimichele@enron.com'
p445
sg11
I694862
sS'shared_receipt_with_poi/to_messages'
p446
I0
sg13
g5
sg14
g5
sg15
g5
sg16
g5
sg17
I374689
sg18
g5
sg19
I1000000
sg20
I8317782
sg21
g5
sg22
g5
sg23
I126027
sg24
I262788
sg25
I2368151
sg26
I8191755
ssS'CARTER REBECCA C'
p447
(dp448
g3
I312
sg4
g5
sg6
g5
sg7
I00
sg8
I-159792
sg9
S'rebecca.carter@enron.com'
p449
sg11
I75000
sS'shared_receipt_with_poi/to_messages'
p450
F0.6282051282051282
sg13
I-307301
sg14
I196
sg15
g5
sg16
I15
sg17
I540
sg18
g5
sg19
I300000
sg20
g5
sg21
I29
sg22
I7
sg23
I307301
sg24
I261809
sg25
I477557
sg26
g5
ssS'BUCHANAN HAROLD G'
p451
(dp452
g3
I1088
sg4
g5
sg6
I600
sg7
I00
sg8
g5
sg9
S'john.buchanan@enron.com'
p453
sg11
I304805
sS'shared_receipt_with_poi/to_messages'
p454
F0.021139705882352942
sg13
g5
sg14
I23
sg15
g5
sg16
I125
sg17
I1215
sg18
g5
sg19
I500000
sg20
I1014505
sg21
I0
sg22
I0
sg23
I189041
sg24
I248017
sg25
I1054637
sg26
I825464
ssS'YEAP SOON'
p455
(dp456
g3
g5
sg4
g5
sg6
I55097
sg7
I00
sg8
g5
sg9
g5
sg11
g5
sS'shared_receipt_with_poi/to_messages'
p457
I0
sg13
g5
sg14
g5
sg15
g5
sg16
g5
sg17
g5
sg18
g5
sg19
g5
sg20
I192758
sg21
g5
sg22
g5
sg23
g5
sg24
g5
sg25
I55097
sg26
I192758
ssS'MURRAY JULIA H'
p458
(dp459
g3
I2192
sg4
g5
sg6
I57580
sg7
I00
sg8
g5
sg9
S'julia.murray@enron.com'
p460
sg11
I125000
sS'shared_receipt_with_poi/to_messages'
p461
F0.1802007299270073
sg13
g5
sg14
I395
sg15
g5
sg16
I45
sg17
I330
sg18
g5
sg19
I400000
sg20
I597461
sg21
I11
sg22
I2
sg23
I196983
sg24
I229284
sg25
I812194
sg26
I400478
ssS'GARLAND C KEVIN'
p462
(dp463
g3
I209
sg4
g5
sg6
I48405
sg7
I00
sg8
g5
sg9
S'kevin.garland@enron.com'
p464
sg11
I375304
sS'shared_receipt_with_poi/to_messages'
p465
F0.8516746411483254
sg13
g5
sg14
I178
sg15
g5
sg16
I44
sg17
I60814
sg18
g5
sg19
I850000
sg20
I896153
sg21
I10
sg22
I27
sg23
I259907
sg24
I231946
sg25
I1566469
sg26
I636246
ssS'DODSON KEITH'
p466
(dp467
g3
I176
sg4
g5
sg6
I28164
sg7
I00
sg8
g5
sg9
S'keith.dodson@enron.com'
p468
sg11
g5
sS'shared_receipt_with_poi/to_messages'
p469
F0.6477272727272727
sg13
g5
sg14
I114
sg15
g5
sg16
I14
sg17
I774
sg18
g5
sg19
I70000
sg20
g5
sg21
I10
sg22
I3
sg23
g5
sg24
I221003
sg25
I319941
sg26
g5
ssS'YEAGER F SCOTT'
p470
(dp471
g3
g5
sg4
g5
sg6
I53947
sg7
I01
sg8
g5
sg9
S'scott.yeager@enron.com'
p472
sg11
g5
sS'shared_receipt_with_poi/to_messages'
p473
I0
sg13
g5
sg14
g5
sg15
g5
sg16
g5
sg17
I147950
sg18
g5
sg19
g5
sg20
I11884758
sg21
g5
sg22
g5
sg23
I3576206
sg24
I158403
sg25
I360300
sg26
I8308552
ssS'HIRKO JOSEPH'
p474
(dp475
g3
g5
sg4
I10259
sg6
I77978
sg7
I01
sg8
g5
sg9
S'joe.hirko@enron.com'
p476
sg11
g5
sS'shared_receipt_with_poi/to_messages'
p477
I0
sg13
g5
sg14
g5
sg15
g5
sg16
g5
sg17
I2856
sg18
g5
sg19
g5
sg20
I30766064
sg21
g5
sg22
g5
sg23
g5
sg24
g5
sg25
I91093
sg26
I30766064
ssS'DIETRICH JANET R'
p478
(dp479
g3
I2572
sg4
g5
sg6
I3475
sg7
I00
sg8
g5
sg9
S'janet.dietrich@enron.com'
p480
sg11
I556416
sS'shared_receipt_with_poi/to_messages'
p481
F0.73950233281493
sg13
g5
sg14
I1902
sg15
g5
sg16
I63
sg17
I473
sg18
g5
sg19
I600000
sg20
I1865087
sg21
I305
sg22
I14
sg23
I315068
sg24
I250100
sg25
I1410464
sg26
I1550019
ssS'DERRICK JR. JAMES V'
p482
(dp483
g3
I2181
sg4
g5
sg6
I51124
sg7
I00
sg8
I-1284000
sg9
S'james.derrick@enron.com'
p484
sg11
I484000
sS'shared_receipt_with_poi/to_messages'
p485
F0.6423658872077029
sg13
I-1787380
sg14
I1401
sg15
g5
sg16
I909
sg17
I7482
sg18
g5
sg19
I800000
sg20
I8831913
sg21
I64
sg22
I20
sg23
I1787380
sg24
I492375
sg25
I550981
sg26
I8831913
ssS'PAI LOU L'
p486
(dp487
g3
g5
sg4
g5
sg6
I32047
sg7
I00
sg8
g5
sg9
S'lou.pai@enron.com'
p488
sg11
g5
sS'shared_receipt_with_poi/to_messages'
p489
I0
sg13
g5
sg14
g5
sg15
g5
sg16
g5
sg17
I1829457
sg18
g5
sg19
I1000000
sg20
I23817930
sg21
g5
sg22
g5
sg23
I8453763
sg24
I261879
sg25
I3123383
sg26
I15364167
ssS'BAY FRANKLIN R'
p490
(dp491
g3
g5
sg4
I260455
sg6
I129142
sg7
I00
sg8
I-201641
sg9
S'frank.bay@enron.com'
p492
sg11
g5
sS'shared_receipt_with_poi/to_messages'
p493
I0
sg13
I-82782
sg14
g5
sg15
g5
sg16
g5
sg17
I69
sg18
g5
sg19
I400000
sg20
I63014
sg21
g5
sg22
g5
sg23
I145796
sg24
I239671
sg25
I827696
sg26
g5
ssS'HAYSLETT RODERICK J'
p494
(dp495
g3
I2649
sg4
g5
sg6
g5
sg7
I00
sg8
g5
sg9
S'rod.hayslett@enron.com'
p496
sg11
g5
sS'shared_receipt_with_poi/to_messages'
p497
F0.21555303888259722
sg13
g5
sg14
I571
sg15
g5
sg16
I1061
sg17
g5
sg18
g5
sg19
g5
sg20
I346663
sg21
I35
sg22
I38
sg23
I346663
sg24
g5
sg25
g5
sg26
g5
ssS'FUGH JOHN L'
p498
(dp499
g3
g5
sg4
I50591
sg6
g5
sg7
I00
sg8
g5
sg9
g5
sg11
g5
sS'shared_receipt_with_poi/to_messages'
p500
I0
sg13
g5
sg14
g5
sg15
g5
sg16
g5
sg17
g5
sg18
g5
sg19
g5
sg20
I176378
sg21
g5
sg22
g5
sg23
g5
sg24
g5
sg25
I50591
sg26
I176378
ssS'FALLON JAMES B'
p501
(dp502
g3
I1755
sg4
g5
sg6
I95924
sg7
I00
sg8
g5
sg9
S'jim.fallon@enron.com'
p503
sg11
I374347
sS'shared_receipt_with_poi/to_messages'
p504
F0.913960113960114
sg13
g5
sg14
I1604
sg15
g5
sg16
I75
sg17
I401481
sg18
g5
sg19
I2500000
sg20
I2332399
sg21
I42
sg22
I37
sg23
I1392142
sg24
I304588
sg25
I3676340
sg26
I940257
ssS'KOENIG MARK E'
p505
(dp506
g3
I2374
sg4
g5
sg6
I127017
sg7
I01
sg8
g5
sg9
S'mark.koenig@enron.com'
p507
sg11
I300000
sS'shared_receipt_with_poi/to_messages'
p508
F0.9566133108677338
sg13
g5
sg14
I2271
sg15
g5
sg16
I61
sg17
I150458
sg18
g5
sg19
I700000
sg20
I1920055
sg21
I53
sg22
I15
sg23
I1248318
sg24
I309946
sg25
I1587421
sg26
I671737
ssS'SAVAGE FRANK'
p509
(dp510
g3
g5
sg4
g5
sg6
g5
sg7
I00
sg8
I-121284
sg9
g5
sg11
g5
sS'shared_receipt_with_poi/to_messages'
p511
I0
sg13
g5
sg14
g5
sg15
g5
sg16
g5
sg17
g5
sg18
I125034
sg19
g5
sg20
g5
sg21
g5
sg22
g5
sg23
g5
sg24
g5
sg25
I3750
sg26
g5
ssS'IZZO LAWRENCE L'
p512
(dp513
g3
I496
sg4
g5
sg6
I28093
sg7
I00
sg8
g5
sg9
S'larry.izzo@enron.com'
p514
sg11
I312500
sS'shared_receipt_with_poi/to_messages'
p515
F0.8810483870967742
sg13
g5
sg14
I437
sg15
g5
sg16
I19
sg17
I1553729
sg18
g5
sg19
g5
sg20
I5819980
sg21
I28
sg22
I5
sg23
I3654808
sg24
I85274
sg25
I1979596
sg26
I2165172
ssS'TILNEY ELIZABETH A'
p516
(dp517
g3
I460
sg4
g5
sg6
g5
sg7
I00
sg8
I-575000
sg9
S'elizabeth.tilney@enron.com'
p518
sg11
I275000
sS'shared_receipt_with_poi/to_messages'
p519
F0.8239130434782609
sg13
g5
sg14
I379
sg15
g5
sg16
I19
sg17
I152055
sg18
g5
sg19
I300000
sg20
I1168042
sg21
I10
sg22
I11
sg23
I576792
sg24
I247338
sg25
I399393
sg26
I591250
ssS'BUY RICHARD B'
p520
(dp521
g3
I3523
sg4
I649584
sg6
g5
sg7
I00
sg8
I-694862
sg9
S'rick.buy@enron.com'
p522
sg11
I769862
sS'shared_receipt_with_poi/to_messages'
p523
F0.6622196991200682
sg13
g5
sg14
I2333
sg15
g5
sg16
I1053
sg17
I400572
sg18
g5
sg19
I900000
sg20
I3444470
sg21
I156
sg22
I71
sg23
I901657
sg24
I330546
sg25
I2355702
sg26
I2542813
ssS'GRAMM WENDY L'
p524
(dp525
g3
g5
sg4
g5
sg6
g5
sg7
I00
sg8
g5
sg9
g5
sg11
g5
sS'shared_receipt_with_poi/to_messages'
p526
I0
sg13
g5
sg14
g5
sg15
g5
sg16
g5
sg17
g5
sg18
I119292
sg19
g5
sg20
g5
sg21
g5
sg22
g5
sg23
g5
sg24
g5
sg25
I119292
sg26
g5
ssS'CAUSEY RICHARD A'
p527
(dp528
g3
I1892
sg4
g5
sg6
I30674
sg7
I01
sg8
I-235000
sg9
S'richard.causey@enron.com'
p529
sg11
I350000
sS'shared_receipt_with_poi/to_messages'
p530
F0.837737843551797
sg13
g5
sg14
I1585
sg15
g5
sg16
I49
sg17
I307895
sg18
g5
sg19
I1000000
sg20
I2502063
sg21
I58
sg22
I12
sg23
I2502063
sg24
I415189
sg25
I1868758
sg26
g5
ssS'TAYLOR MITCHELL S'
p531
(dp532
g3
I533
sg4
I227449
sg6
g5
sg7
I00
sg8
g5
sg9
S'mitchell.taylor@enron.com'
p533
sg11
g5
sS'shared_receipt_with_poi/to_messages'
p534
F0.5628517823639775
sg13
g5
sg14
I300
sg15
g5
sg16
I29
sg17
g5
sg18
g5
sg19
I600000
sg20
I3745048
sg21
I0
sg22
I0
sg23
I563798
sg24
I265214
sg25
I1092663
sg26
I3181250
ssS'DONAHUE JR JEFFREY M'
p535
(dp536
g3
I865
sg4
g5
sg6
I96268
sg7
I00
sg8
I-300000
sg9
S'jeff.donahue@enron.com'
p537
sg11
g5
sS'shared_receipt_with_poi/to_messages'
p538
F0.892485549132948
sg13
g5
sg14
I772
sg15
g5
sg16
I22
sg17
I891
sg18
g5
sg19
I800000
sg20
I1080988
sg21
I188
sg22
I11
sg23
I315068
sg24
I278601
sg25
I875760
sg26
I765920
ssS'GLISAN JR BEN F'
p539
(dp540
g3
I873
sg4
g5
sg6
I125978
sg7
I01
sg8
g5
sg9
S'ben.glisan@enron.com'
p541
sg11
I71023
sS'shared_receipt_with_poi/to_messages'
p542
F1.0011454753722795
sg13
g5
sg14
I874
sg15
g5
sg16
I16
sg17
I200308
sg18
g5
sg19
I600000
sg20
I778546
sg21
I52
sg22
I6
sg23
I393818
sg24
I274975
sg25
I1272284
sg26
I384728
ss.