(lp0
S'poi'
p1
aS'salary'
p2
aS'deferral_payments'
p3
aS'total_payments'
p4
aS'deferred_income'
p5
aS'total_stock_value'
p6
aS'expenses'
p7
aS'exercised_stock_options'
p8
aS'other'
p9
aS'restricted_stock'
p10
aS'director_fees'
p11
aS'to_messages'
p12
aS'from_poi_to_this_person'
p13
aS'from_messages'
p14
aS'from_this_person_to_poi'
p15
aS'shared_receipt_with_poi'
p16
aS'shared_receipt_with_poi/to_messages'
p17
a.