(dp0
S'METTS MARK'
p1
(dp2
S'to_messages'
p3
I807
sS'bonus/salary'
p4
F1.6402943781644013
sS'deferral_payments'
p5
S'NaN'
p6
sS'expenses'
p7
I94299
sS'poi'
p8
I00
sS'deferred_income'
p9
g6
sS'email_address'
p10
S'mark.metts@enron.com'
p11
sS'long_term_incentive'
p12
g6
sS'shared_receipt_with_poi/to_messages'
p13
F0.8698884758364313
sS'restricted_stock_deferred'
p14
g6
sS'shared_receipt_with_poi'
p15
I702
sS'loan_advances'
p16
g6
sS'from_messages'
p17
I29
sS'other'
p18
I1740
sS'director_fees'
p19
g6
sS'restricted_stock/total_stock_value'
p20
F1.0
sS'bonus'
p21
I600000
sS'total_stock_value'
p22
I585062
sS'from_poi_to_this_person'
p23
I38
sS'from_this_person_to_poi/to_messages'
p24
F0.0012391573729863693
sS'from_this_person_to_poi'
p25
I1
sS'exercised_stock_options/total_stock_value'
p26
I0
sS'restricted_stock'
p27
I585062
sS'salary'
p28
I365788
sS'shared_receipt_with_poi/total_payments'
p29
F0.0006611246464819599
sS'bonus/total_payments'
p30
F0.5650638004119315
sS'total_payments'
p31
I1061827
sS'exercised_stock_options'
p32
g6
ssS'BAXTER JOHN C'
p33
(dp34
g3
g6
sS'bonus/salary'
p35
F4.492665723206865
sg5
I1295738
sg7
I11200
sg8
I00
sg9
I-1386055
sg10
g6
sg12
I1586055
sS'shared_receipt_with_poi/to_messages'
p36
I0
sg14
g6
sg15
g6
sg16
g6
sg17
g6
sg18
I2660303
sg19
g6
sS'restricted_stock/total_stock_value'
p37
F0.3711398141700032
sg21
I1200000
sg22
I10623258
sg23
g6
sS'from_this_person_to_poi/to_messages'
p38
I0
sg25
g6
sS'exercised_stock_options/total_stock_value'
p39
F0.6288601858299968
sg27
I3942714
sg28
I267102
sS'shared_receipt_with_poi/total_payments'
p40
I0
sS'bonus/total_payments'
p41
F0.21297957898551792
sg31
I5634343
sg32
I6680544
ssS'ELLIOTT STEVEN'
p42
(dp43
g3
g6
sS'bonus/salary'
p44
F2.047490069673162
sg5
g6
sg7
I78552
sg8
I00
sg9
I-400729
sg10
S'steven.elliott@enron.com'
p45
sg12
g6
sS'shared_receipt_with_poi/to_messages'
p46
I0
sg14
g6
sg15
g6
sg16
g6
sg17
g6
sg18
I12961
sg19
g6
sS'restricted_stock/total_stock_value'
p47
F0.2677739122753036
sg21
I350000
sg22
I6678735
sg23
g6
sS'from_this_person_to_poi/to_messages'
p48
I0
sg25
g6
sS'exercised_stock_options/total_stock_value'
p49
F0.7322260877246963
sg27
I1788391
sg28
I170941
sS'shared_receipt_with_poi/total_payments'
p50
I0
sS'bonus/total_payments'
p51
F1.6530877317274766
sg31
I211725
sg32
I4890344
ssS'CORDES WILLIAM R'
p52
(dp53
g3
I764
sS'bonus/salary'
p54
I0
sg5
g6
sg7
g6
sg8
I00
sg9
g6
sg10
S'bill.cordes@enron.com'
p55
sg12
g6
sS'shared_receipt_with_poi/to_messages'
p56
F0.07591623036649214
sg14
g6
sg15
I58
sg16
g6
sg17
I12
sg18
g6
sg19
g6
sS'restricted_stock/total_stock_value'
p57
F0.3721253919099197
sg21
g6
sg22
I1038185
sg23
I10
sS'from_this_person_to_poi/to_messages'
p58
F0.0
sg25
I0
sS'exercised_stock_options/total_stock_value'
p59
F0.6278746080900803
sg27
I386335
sg28
g6
sS'shared_receipt_with_poi/total_payments'
p60
I0
sS'bonus/total_payments'
p61
I0
sg31
g6
sg32
I651850
ssS'HANNON KEVIN P'
p62
(dp63
g3
I1045
sS'bonus/salary'
p64
F6.165405498719651
sg5
g6
sg7
I34039
sg8
I01
sg9
I-3117011
sg10
S'kevin.hannon@enron.com'
p65
sg12
I1617011
sS'shared_receipt_with_poi/to_messages'
p66
F0.9904306220095693
sg14
g6
sg15
I1035
sg16
g6
sg17
I32
sg18
I11350
sg19
g6
sS'restricted_stock/total_stock_value'
p67
F0.13347759723927077
sg21
I1500000
sg22
I6391065
sg23
I32
sS'from_this_person_to_poi/to_messages'
p68
F0.020095693779904306
sg25
I21
sS'exercised_stock_options/total_stock_value'
p69
F0.8665224027607292
sg27
I853064
sg28
I243293
sS'shared_receipt_with_poi/total_payments'
p70
F0.0035852599053629946
sS'bonus/total_payments'
p71
F5.196028848352166
sg31
I288682
sg32
I5538001
ssS'MORDAUNT KRISTINA M'
p72
(dp73
g3
g6
sS'bonus/salary'
p74
F1.2168046335920448
sg5
g6
sg7
I35018
sg8
I00
sg9
g6
sg10
S'kristina.mordaunt@enron.com'
p75
sg12
g6
sS'shared_receipt_with_poi/to_messages'
p76
I0
sg14
g6
sg15
g6
sg16
g6
sg17
g6
sg18
I1411
sg19
g6
sS'restricted_stock/total_stock_value'
p77
F1.0
sg21
I325000
sg22
I208510
sg23
g6
sS'from_this_person_to_poi/to_messages'
p78
I0
sg25
g6
sS'exercised_stock_options/total_stock_value'
p79
I0
sg27
I208510
sg28
I267093
sS'shared_receipt_with_poi/total_payments'
p80
I0
sS'bonus/total_payments'
p81
F0.5170861163173286
sg31
I628522
sg32
g6
ssS'MEYER ROCKFORD G'
p82
(dp83
g3
I232
sS'bonus/salary'
p84
I0
sg5
I1848227
sg7
g6
sg8
I00
sg9
g6
sg10
S'rockford.meyer@enron.com'
p85
sg12
g6
sS'shared_receipt_with_poi/to_messages'
p86
F0.09482758620689655
sg14
g6
sg15
I22
sg16
g6
sg17
I28
sg18
g6
sg19
g6
sS'restricted_stock/total_stock_value'
p87
F0.4837295331074316
sg21
g6
sg22
I955873
sg23
I0
sS'from_this_person_to_poi/to_messages'
p88
F0.0
sg25
I0
sS'exercised_stock_options/total_stock_value'
p89
F0.5162704668925684
sg27
I462384
sg28
g6
sS'shared_receipt_with_poi/total_payments'
p90
F1.1903299757010368e-05
sS'bonus/total_payments'
p91
I0
sg31
I1848227
sg32
I493489
ssS'MCMAHON JEFFREY'
p92
(dp93
g3
I2355
sS'bonus/salary'
p94
F7.018528916339135
sg5
g6
sg7
I137108
sg8
I00
sg9
g6
sg10
S'jeffrey.mcmahon@enron.com'
p95
sg12
I694862
sS'shared_receipt_with_poi/to_messages'
p96
F0.9460721868365181
sg14
g6
sg15
I2228
sg16
g6
sg17
I48
sg18
I297353
sg19
g6
sS'restricted_stock/total_stock_value'
p97
F0.3360491443932273
sg21
I2600000
sg22
I1662855
sg23
I58
sS'from_this_person_to_poi/to_messages'
p98
F0.011040339702760084
sg25
I26
sS'exercised_stock_options/total_stock_value'
p99
F0.6639508556067727
sg27
I558801
sg28
I370448
sS'shared_receipt_with_poi/total_payments'
p100
F0.0005434449875371088
sS'bonus/total_payments'
p101
F0.6341817628350461
sg31
I4099771
sg32
I1104054
ssS'HORTON STANLEY C'
p102
(dp103
g3
I2350
sS'bonus/salary'
p104
I0
sg5
I3131860
sg7
g6
sg8
I00
sg9
g6
sg10
S'stanley.horton@enron.com'
p105
sg12
g6
sS'shared_receipt_with_poi/to_messages'
p106
F0.4570212765957447
sg14
g6
sg15
I1074
sg16
g6
sg17
I1073
sg18
g6
sg19
g6
sS'restricted_stock/total_stock_value'
p107
F0.28195924619741786
sg21
g6
sg22
I7256648
sg23
I44
sS'from_this_person_to_poi/to_messages'
p108
F0.006382978723404255
sg25
I15
sS'exercised_stock_options/total_stock_value'
p109
F0.7180407538025821
sg27
I2046079
sg28
g6
sS'shared_receipt_with_poi/total_payments'
p110
F0.00034292720619695646
sS'bonus/total_payments'
p111
I0
sg31
I3131860
sg32
I5210569
ssS'PIPER GREGORY F'
p112
(dp113
g3
I1238
sS'bonus/salary'
p114
F2.0295193590777862
sg5
I1130036
sg7
I43057
sg8
I00
sg9
I-33333
sg10
S'greg.piper@enron.com'
p115
sg12
g6
sS'shared_receipt_with_poi/to_messages'
p116
F0.5993537964458805
sg14
I-409554
sg15
I742
sg16
g6
sg17
I222
sg18
I778
sg19
g6
sS'restricted_stock/total_stock_value'
p117
F0.46524895204989264
sg21
I400000
sg22
I880290
sg23
I61
sS'from_this_person_to_poi/to_messages'
p118
F0.03877221324717286
sg25
I48
sS'exercised_stock_options/total_stock_value'
p119
F1.0
sg27
I409554
sg28
I197091
sS'shared_receipt_with_poi/total_payments'
p120
F0.0004270186558810885
sS'bonus/total_payments'
p121
F0.23019873632403695
sg31
I1737629
sg32
I880290
ssS'HUMPHREY GENE E'
p122
(dp123
g3
I128
sS'bonus/salary'
p124
I0
sg5
I2964506
sg7
I4994
sg8
I00
sg9
g6
sg10
S'gene.humphrey@enron.com'
p125
sg12
g6
sS'shared_receipt_with_poi/to_messages'
p126
F0.9296875
sg14
g6
sg15
I119
sg16
g6
sg17
I17
sg18
g6
sg19
g6
sS'restricted_stock/total_stock_value'
p127
I0
sg21
g6
sg22
I2282768
sg23
I10
sS'from_this_person_to_poi/to_messages'
p128
F0.1328125
sg25
I17
sS'exercised_stock_options/total_stock_value'
p129
F1.0
sg27
g6
sg28
I130724
sS'shared_receipt_with_poi/total_payments'
p130
F3.838432319729155e-05
sS'bonus/total_payments'
p131
I0
sg31
I3100224
sg32
I2282768
ssS'UMANOFF ADAM S'
p132
(dp133
g3
I111
sS'bonus/salary'
p134
F2.7331256562100426
sg5
g6
sg7
I53122
sg8
I00
sg9
g6
sg10
S'adam.umanoff@enron.com'
p135
sg12
g6
sS'shared_receipt_with_poi/to_messages'
p136
F0.36936936936936937
sg14
g6
sg15
I41
sg16
g6
sg17
I18
sg18
g6
sg19
g6
sS'restricted_stock/total_stock_value'
p137
I0
sg21
I788750
sg22
g6
sg23
I12
sS'from_this_person_to_poi/to_messages'
p138
F0.0
sg25
I0
sS'exercised_stock_options/total_stock_value'
p139
I0
sg27
g6
sg28
I288589
sS'shared_receipt_with_poi/total_payments'
p140
F3.626838962157916e-05
sS'bonus/total_payments'
p141
F0.6977242027809893
sg31
I1130461
sg32
g6
ssS'BLACHMAN JEREMY M'
p142
(dp143
g3
I2475
sS'bonus/salary'
p144
F3.419890080709406
sg5
g6
sg7
I84208
sg8
I00
sg9
g6
sg10
S'jeremy.blachman@enron.com'
p145
sg12
I831809
sS'shared_receipt_with_poi/to_messages'
p146
F0.9397979797979797
sg14
g6
sg15
I2326
sg16
g6
sg17
I14
sg18
I272
sg19
g6
sS'restricted_stock/total_stock_value'
p147
F0.19808268210747793
sg21
I850000
sg22
I954354
sg23
I25
sS'from_this_person_to_poi/to_messages'
p148
F0.0008080808080808081
sg25
I2
sS'exercised_stock_options/total_stock_value'
p149
F0.8019173178925221
sg27
I189041
sg28
I248546
sS'shared_receipt_with_poi/total_payments'
p150
F0.0011544369638208588
sS'bonus/total_payments'
p151
F0.4218707735372872
sg31
I2014835
sg32
I765313
ssS'SUNDE MARTIN'
p152
(dp153
g3
I2647
sS'bonus/salary'
p154
F2.7185944090164127
sg5
g6
sg7
g6
sg8
I00
sg9
g6
sg10
S'marty.sunde@enron.com'
p155
sg12
I476451
sS'shared_receipt_with_poi/to_messages'
p156
F0.9690215338118625
sg14
g6
sg15
I2565
sg16
g6
sg17
I38
sg18
I111122
sg19
g6
sS'restricted_stock/total_stock_value'
p157
F1.0
sg21
I700000
sg22
I698920
sg23
I37
sS'from_this_person_to_poi/to_messages'
p158
F0.004911220249338874
sg25
I13
sS'exercised_stock_options/total_stock_value'
p159
I0
sg27
I698920
sg28
I257486
sS'shared_receipt_with_poi/total_payments'
p160
F0.0016601307781774028
sS'bonus/total_payments'
p161
F0.4530571324460749
sg31
I1545059
sg32
g6
ssS'GIBBS DANA R'
p162
(dp163
g3
I169
sS'bonus/salary'
p164
I0
sg5
I504610
sg7
g6
sg8
I00
sg9
g6
sg10
S'dana.gibbs@enron.com'
p165
sg12
I461912
sS'shared_receipt_with_poi/to_messages'
p166
F0.13609467455621302
sg14
g6
sg15
I23
sg16
g6
sg17
I12
sg18
g6
sg19
g6
sS'restricted_stock/total_stock_value'
p167
I0
sg21
g6
sg22
I2218275
sg23
I0
sS'from_this_person_to_poi/to_messages'
p168
F0.0
sg25
I0
sS'exercised_stock_options/total_stock_value'
p169
F1.0
sg27
g6
sg28
g6
sS'shared_receipt_with_poi/total_payments'
p170
F2.3796664742240735e-05
sS'bonus/total_payments'
p171
I0
sg31
I966522
sg32
I2218275
ssS'LOWRY CHARLES P'
p172
(dp173
g3
g6
sS'bonus/salary'
p174
I0
sg5
g6
sg7
g6
sg8
I00
sg9
g6
sg10
g6
sg12
g6
sS'shared_receipt_with_poi/to_messages'
p175
I0
sg14
I-153686
sg15
g6
sg16
g6
sg17
g6
sg18
g6
sg19
g6
sS'restricted_stock/total_stock_value'
p176
F0.41290686584006125
sg21
g6
sg22
I372205
sg23
g6
sS'from_this_person_to_poi/to_messages'
p177
I0
sg25
g6
sS'exercised_stock_options/total_stock_value'
p178
F1.0
sg27
I153686
sg28
g6
sS'shared_receipt_with_poi/total_payments'
p179
I0
sS'bonus/total_payments'
p180
I0
sg31
g6
sg32
I372205
ssS'COLWELL WESLEY'
p181
(dp182
g3
I1758
sS'bonus/salary'
p183
F4.158839960906905
sg5
I27610
sg7
I16514
sg8
I01
sg9
I-144062
sg10
S'wes.colwell@enron.com'
p184
sg12
g6
sS'shared_receipt_with_poi/to_messages'
p185
F0.6439135381114903
sg14
g6
sg15
I1132
sg16
g6
sg17
I40
sg18
I101740
sg19
g6
sS'restricted_stock/total_stock_value'
p186
F1.0
sg21
I1200000
sg22
I698242
sg23
I240
sS'from_this_person_to_poi/to_messages'
p187
F0.006257110352673493
sg25
I11
sS'exercised_stock_options/total_stock_value'
p188
I0
sg27
I698242
sg28
I288542
sS'shared_receipt_with_poi/total_payments'
p189
F0.0007595561830020451
sS'bonus/total_payments'
p190
F0.8051832328643588
sg31
I1490344
sg32
g6
ssS'MULLER MARK S'
p191
(dp192
g3
I136
sS'bonus/salary'
p193
F4.3710809285765375
sg5
I842924
sg7
g6
sg8
I00
sg9
I-719000
sg10
S's..muller@enron.com'
p194
sg12
I1725545
sS'shared_receipt_with_poi/to_messages'
p195
F0.8382352941176471
sg14
g6
sg15
I114
sg16
g6
sg17
I16
sg18
I947
sg19
g6
sS'restricted_stock/total_stock_value'
p196
F0.2544577823450363
sg21
I1100000
sg22
I1416848
sg23
I12
sS'from_this_person_to_poi/to_messages'
p197
F0.0
sg25
I0
sS'exercised_stock_options/total_stock_value'
p198
F0.7455422176549636
sg27
I360528
sg28
I251654
sS'shared_receipt_with_poi/total_payments'
p199
F3.560196997567199e-05
sS'bonus/total_payments'
p200
F0.3435277804670104
sg31
I3202070
sg32
I1056320
ssS'JACKSON CHARLENE R'
p201
(dp202
g3
I258
sS'bonus/salary'
p203
F0.8663769502145149
sg5
g6
sg7
I10181
sg8
I00
sg9
g6
sg10
S'charlene.jackson@enron.com'
p204
sg12
g6
sS'shared_receipt_with_poi/to_messages'
p205
F0.45348837209302323
sg14
g6
sg15
I117
sg16
g6
sg17
I56
sg18
I2435
sg19
g6
sS'restricted_stock/total_stock_value'
p206
F0.7449992076997802
sg21
I250000
sg22
I725735
sg23
I25
sS'from_this_person_to_poi/to_messages'
p207
F0.07364341085271318
sg25
I19
sS'exercised_stock_options/total_stock_value'
p208
F0.25500079230021977
sg27
I540672
sg28
I288558
sS'shared_receipt_with_poi/total_payments'
p209
F0.0002122741638756545
sS'bonus/total_payments'
p210
F0.453577273238578
sg31
I551174
sg32
I185063
ssS'WESTFAHL RICHARD K'
p211
(dp212
g3
g6
sS'bonus/salary'
p213
I0
sg5
g6
sg7
I51870
sg8
I00
sg9
I-10800
sg10
S'dick.westfahl@enron.com'
p214
sg12
I256191
sS'shared_receipt_with_poi/to_messages'
p215
I0
sg14
g6
sg15
g6
sg16
g6
sg17
g6
sg18
I401130
sg19
g6
sS'restricted_stock/total_stock_value'
p216
F1.0
sg21
g6
sg22
I384930
sg23
g6
sS'from_this_person_to_poi/to_messages'
p217
I0
sg25
g6
sS'exercised_stock_options/total_stock_value'
p218
I0
sg27
I384930
sg28
I63744
sS'shared_receipt_with_poi/total_payments'
p219
I0
sS'bonus/total_payments'
p220
I0
sg31
I762135
sg32
g6
ssS'WALTERS GARETH W'
p221
(dp222
g3
g6
sS'bonus/salary'
p223
I0
sg5
I53625
sg7
I33785
sg8
I00
sg9
g6
sg10
g6
sg12
g6
sS'shared_receipt_with_poi/to_messages'
p224
I0
sg14
g6
sg15
g6
sg16
g6
sg17
g6
sg18
g6
sg19
g6
sS'restricted_stock/total_stock_value'
p225
I0
sg21
g6
sg22
I1030329
sg23
g6
sS'from_this_person_to_poi/to_messages'
p226
I0
sg25
g6
sS'exercised_stock_options/total_stock_value'
p227
F1.0
sg27
g6
sg28
g6
sS'shared_receipt_with_poi/total_payments'
p228
I0
sS'bonus/total_payments'
p229
I0
sg31
I87410
sg32
I1030329
ssS'WALLS JR ROBERT H'
p230
(dp231
g3
I671
sS'bonus/salary'
p232
F2.380345626184922
sg5
g6
sg7
I50936
sg8
I00
sg9
g6
sg10
S'rob.walls@enron.com'
p233
sg12
I540751
sS'shared_receipt_with_poi/to_messages'
p234
F0.3204172876304024
sg14
g6
sg15
I215
sg16
g6
sg17
I146
sg18
I2
sg19
g6
sS'restricted_stock/total_stock_value'
p235
F0.2631723664209356
sg21
I850000
sg22
I5898997
sg23
I17
sS'from_this_person_to_poi/to_messages'
p236
F0.0
sg25
I0
sS'exercised_stock_options/total_stock_value'
p237
F0.7368276335790643
sg27
I1552453
sg28
I357091
sS'shared_receipt_with_poi/total_payments'
p238
F0.00011952545614249658
sS'bonus/total_payments'
p239
F0.47254250102847484
sg31
I1798780
sg32
I4346544
ssS'KITCHEN LOUISE'
p240
(dp241
g3
I8305
sS'bonus/salary'
p242
F11.420487617981005
sg5
g6
sg7
I5774
sg8
I00
sg9
g6
sg10
S'louise.kitchen@enron.com'
p243
sg12
g6
sS'shared_receipt_with_poi/to_messages'
p244
F0.441782059000602
sg14
g6
sg15
I3669
sg16
g6
sg17
I1728
sg18
I93925
sg19
g6
sS'restricted_stock/total_stock_value'
p245
F0.8518815008142295
sg21
I3100000
sg22
I547143
sg23
I251
sS'from_this_person_to_poi/to_messages'
p246
F0.023359422034918725
sg25
I194
sS'exercised_stock_options/total_stock_value'
p247
F0.14811849918577044
sg27
I466101
sg28
I271442
sS'shared_receipt_with_poi/total_payments'
p248
F0.0010570011416995162
sS'bonus/total_payments'
p249
F0.8930780973748977
sg31
I3471141
sg32
I81042
ssS'CHAN RONNIE'
p250
(dp251
g3
g6
sS'bonus/salary'
p252
I0
sg5
g6
sg7
g6
sg8
I00
sg9
I-98784
sg10
g6
sg12
g6
sS'shared_receipt_with_poi/to_messages'
p253
I0
sg14
I-32460
sg15
g6
sg16
g6
sg17
g6
sg18
g6
sg19
I98784
sS'restricted_stock/total_stock_value'
p254
I0
sg21
g6
sg22
g6
sg23
g6
sS'from_this_person_to_poi/to_messages'
p255
I0
sg25
g6
sS'exercised_stock_options/total_stock_value'
p256
I0
sg27
I32460
sg28
g6
sS'shared_receipt_with_poi/total_payments'
p257
I0
sS'bonus/total_payments'
p258
I0
sg31
g6
sg32
g6
ssS'BELFER ROBERT'
p259
(dp260
g3
g6
sS'bonus/salary'
p261
I0
sg5
I-102500
sg7
g6
sg8
I00
sg9
g6
sg10
g6
sg12
g6
sS'shared_receipt_with_poi/to_messages'
p262
I0
sg14
I44093
sg15
g6
sg16
g6
sg17
g6
sg18
g6
sg19
I3285
sS'restricted_stock/total_stock_value'
p263
I0
sg21
g6
sg22
I-44093
sg23
g6
sS'from_this_person_to_poi/to_messages'
p264
I0
sg25
g6
sS'exercised_stock_options/total_stock_value'
p265
F-0.07450162157258522
sg27
g6
sg28
g6
sS'shared_receipt_with_poi/total_payments'
p266
I0
sS'bonus/total_payments'
p267
I0
sg31
I102500
sg32
I3285
ssS'SHANKMAN JEFFREY A'
p268
(dp269
g3
I3221
sS'bonus/salary'
p270
F6.576567689322943
sg5
g6
sg7
I178979
sg8
I00
sg9
g6
sg10
S'jeffrey.shankman@enron.com'
p271
sg12
I554422
sS'shared_receipt_with_poi/to_messages'
p272
F0.5371002794163303
sg14
g6
sg15
I1730
sg16
g6
sg17
I2681
sg18
I1191
sg19
g6
sS'restricted_stock/total_stock_value'
p273
F0.3041150366668517
sg21
I2000000
sg22
I2072035
sg23
I94
sS'from_this_person_to_poi/to_messages'
p274
F0.025768394908413535
sg25
I83
sS'exercised_stock_options/total_stock_value'
p275
F0.6958849633331483
sg27
I630137
sg28
I304110
sS'shared_receipt_with_poi/total_payments'
p276
F0.0005693220328943082
sS'bonus/total_payments'
p277
F0.6581757605714545
sg31
I3038702
sg32
I1441898
ssS'WODRASKA JOHN'
p278
(dp279
g3
g6
sS'bonus/salary'
p280
I0
sg5
g6
sg7
g6
sg8
I00
sg9
g6
sg10
S'john.wodraska@enron.com'
p281
sg12
g6
sS'shared_receipt_with_poi/to_messages'
p282
I0
sg14
g6
sg15
g6
sg16
g6
sg17
g6
sg18
I189583
sg19
g6
sS'restricted_stock/total_stock_value'
p283
I0
sg21
g6
sg22
g6
sg23
g6
sS'from_this_person_to_poi/to_messages'
p284
I0
sg25
g6
sS'exercised_stock_options/total_stock_value'
p285
I0
sg27
g6
sg28
g6
sS'shared_receipt_with_poi/total_payments'
p286
I0
sS'bonus/total_payments'
p287
I0
sg31
I189583
sg32
g6
ssS'BERGSIEKER RICHARD P'
p288
(dp289
g3
I383
sS'bonus/salary'
p290
F1.3303391832781686
sg5
g6
sg7
I59175
sg8
I00
sg9
I-485813
sg10
S'rick.bergsieker@enron.com'
p291
sg12
I180250
sS'shared_receipt_with_poi/to_messages'
p292
F0.608355091383812
sg14
g6
sg15
I233
sg16
g6
sg17
I59
sg18
I427316
sg19
g6
sS'restricted_stock/total_stock_value'
p293
F1.0
sg21
I250000
sg22
I659249
sg23
I4
sS'from_this_person_to_poi/to_messages'
p294
F0.0
sg25
I0
sS'exercised_stock_options/total_stock_value'
p295
I0
sg27
I659249
sg28
I187922
sS'shared_receipt_with_poi/total_payments'
p296
F0.0003765048073038701
sS'bonus/total_payments'
p297
F0.4039751151329078
sg31
I618850
sg32
g6
ssS'URQUHART JOHN A'
p298
(dp299
g3
g6
sS'bonus/salary'
p300
I0
sg5
g6
sg7
I228656
sg8
I00
sg9
I-36666
sg10
g6
sg12
g6
sS'shared_receipt_with_poi/to_messages'
p301
I0
sg14
g6
sg15
g6
sg16
g6
sg17
g6
sg18
g6
sg19
I36666
sS'restricted_stock/total_stock_value'
p302
I0
sg21
g6
sg22
g6
sg23
g6
sS'from_this_person_to_poi/to_messages'
p303
I0
sg25
g6
sS'exercised_stock_options/total_stock_value'
p304
I0
sg27
g6
sg28
g6
sS'shared_receipt_with_poi/total_payments'
p305
I0
sS'bonus/total_payments'
p306
I0
sg31
I228656
sg32
g6
ssS'BIBI PHILIPPE A'
p307
(dp308
g3
I1607
sS'bonus/salary'
p309
F4.681100058513751
sg5
g6
sg7
I38559
sg8
I00
sg9
g6
sg10
S'philippe.bibi@enron.com'
p310
sg12
I369721
sS'shared_receipt_with_poi/to_messages'
p311
F0.8313627878033603
sg14
g6
sg15
I1336
sg16
g6
sg17
I40
sg18
I425688
sg19
g6
sS'restricted_stock/total_stock_value'
p312
F0.20505408348772328
sg21
I1000000
sg22
I1843816
sg23
I23
sS'from_this_person_to_poi/to_messages'
p313
F0.004978220286247666
sg25
I8
sS'exercised_stock_options/total_stock_value'
p314
F0.7949459165122768
sg27
I378082
sg28
I213625
sS'shared_receipt_with_poi/total_payments'
p315
F0.0006524734163478777
sS'bonus/total_payments'
p316
F0.4883783056496091
sg31
I2047593
sg32
I1465734
ssS'RIEKER PAULA H'
p317
(dp318
g3
I1328
sS'bonus/salary'
p319
F2.8089774920646384
sg5
I214678
sg7
I33271
sg8
I01
sg9
I-100000
sg10
S'paula.rieker@enron.com'
p320
sg12
g6
sS'shared_receipt_with_poi/to_messages'
p321
F0.947289156626506
sg14
g6
sg15
I1258
sg16
g6
sg17
I82
sg18
I1950
sg19
g6
sS'restricted_stock/total_stock_value'
p322
F0.14781954330817812
sg21
I700000
sg22
I1918887
sg23
I35
sS'from_this_person_to_poi/to_messages'
p323
F0.03614457831325301
sg25
I48
sS'exercised_stock_options/total_stock_value'
p324
F0.8521804566918219
sg27
I283649
sg28
I249201
sS'shared_receipt_with_poi/total_payments'
p325
F0.0011445728323173506
sS'bonus/total_payments'
p326
F0.6368847238649804
sg31
I1099100
sg32
I1635238
ssS'WHALEY DAVID A'
p327
(dp328
g3
g6
sS'bonus/salary'
p329
I0
sg5
g6
sg7
g6
sg8
I00
sg9
g6
sg10
g6
sg12
g6
sS'shared_receipt_with_poi/to_messages'
p330
I0
sg14
g6
sg15
g6
sg16
g6
sg17
g6
sg18
g6
sg19
g6
sS'restricted_stock/total_stock_value'
p331
I0
sg21
g6
sg22
I98718
sg23
g6
sS'from_this_person_to_poi/to_messages'
p332
I0
sg25
g6
sS'exercised_stock_options/total_stock_value'
p333
F1.0
sg27
g6
sg28
g6
sS'shared_receipt_with_poi/total_payments'
p334
I0
sS'bonus/total_payments'
p335
I0
sg31
g6
sg32
I98718
ssS'BECK SALLY W'
p336
(dp337
g3
I7315
sS'bonus/salary'
p338
F3.025980201443825
sg5
g6
sg7
I37172
sg8
I00
sg9
g6
sg10
S'sally.beck@enron.com'
p339
sg12
g6
sS'shared_receipt_with_poi/to_messages'
p340
F0.36076555023923446
sg14
g6
sg15
I2639
sg16
g6
sg17
I4343
sg18
I566
sg19
g6
sS'restricted_stock/total_stock_value'
p341
F1.0
sg21
I700000
sg22
I126027
sg23
I144
sS'from_this_person_to_poi/to_messages'
p342
F0.052768284347231714
sg25
I386
sS'exercised_stock_options/total_stock_value'
p343
I0
sg27
I126027
sg28
I231330
sS'shared_receipt_with_poi/total_payments'
p344
F0.002723235108372168
sS'bonus/total_payments'
p345
F0.7223435300721931
sg31
I969068
sg32
g6
ssS'HAUG DAVID L'
p346
(dp347
g3
I573
sS'bonus/salary'
p348
I0
sg5
g6
sg7
I475
sg8
I00
sg9
g6
sg10
S'david.haug@enron.com'
p349
sg12
g6
sS'shared_receipt_with_poi/to_messages'
p350
F0.8219895287958116
sg14
g6
sg15
I471
sg16
g6
sg17
I19
sg18
g6
sg19
g6
sS'restricted_stock/total_stock_value'
p351
F1.0
sg21
g6
sg22
I2217299
sg23
I4
sS'from_this_person_to_poi/to_messages'
p352
F0.012216404886561954
sg25
I7
sS'exercised_stock_options/total_stock_value'
p353
I0
sg27
I2217299
sg28
g6
sS'shared_receipt_with_poi/total_payments'
p354
F0.991578947368421
sS'bonus/total_payments'
p355
I0
sg31
I475
sg32
g6
ssS'ECHOLS JOHN B'
p356
(dp357
g3
g6
sS'bonus/salary'
p358
F1.0974237976350518
sg5
g6
sg7
I21530
sg8
I00
sg9
g6
sg10
S'john.echols@enron.com'
p359
sg12
I2234774
sS'shared_receipt_with_poi/to_messages'
p360
I0
sg14
g6
sg15
g6
sg16
g6
sg17
g6
sg18
I53775
sg19
g6
sS'restricted_stock/total_stock_value'
p361
F0.40389180338592645
sg21
I200000
sg22
I1008941
sg23
g6
sS'from_this_person_to_poi/to_messages'
p362
I0
sg25
g6
sS'exercised_stock_options/total_stock_value'
p363
F0.5961081966140735
sg27
I407503
sg28
I182245
sS'shared_receipt_with_poi/total_payments'
p364
I0
sS'bonus/total_payments'
p365
F0.07428526432925606
sg31
I2692324
sg32
I601438
ssS'MENDELSOHN JOHN'
p366
(dp367
g3
g6
sS'bonus/salary'
p368
I0
sg5
g6
sg7
I148
sg8
I00
sg9
I-103750
sg10
g6
sg12
g6
sS'shared_receipt_with_poi/to_messages'
p369
I0
sg14
g6
sg15
g6
sg16
g6
sg17
g6
sg18
g6
sg19
I103750
sS'restricted_stock/total_stock_value'
p370
I0
sg21
g6
sg22
g6
sg23
g6
sS'from_this_person_to_poi/to_messages'
p371
I0
sg25
g6
sS'exercised_stock_options/total_stock_value'
p372
I0
sg27
g6
sg28
g6
sS'shared_receipt_with_poi/total_payments'
p373
I0
sS'bonus/total_payments'
p374
I0
sg31
I148
sg32
g6
ssS'HICKERSON GARY J'
p375
(dp376
g3
I1320
sS'bonus/salary'
p377
F8.02689481934765
sg5
g6
sg7
I98849
sg8
I00
sg9
g6
sg10
S'gary.hickerson@enron.com'
p378
sg12
I69223
sS'shared_receipt_with_poi/to_messages'
p379
F0.6818181818181818
sg14
g6
sg15
I900
sg16
g6
sg17
I27
sg18
I1936
sg19
g6
sS'restricted_stock/total_stock_value'
p380
F1.0
sg21
I1700000
sg22
I441096
sg23
I40
sS'from_this_person_to_poi/to_messages'
p381
F0.0007575757575757576
sg25
I1
sS'exercised_stock_options/total_stock_value'
p382
I0
sg27
I441096
sg28
I211788
sS'shared_receipt_with_poi/total_payments'
p383
F0.0004323190168489131
sS'bonus/total_payments'
p384
F0.8166025873812804
sg31
I2081796
sg32
g6
ssS'CLINE KENNETH W'
p385
(dp386
g3
g6
sS'bonus/salary'
p387
I0
sg5
g6
sg7
g6
sg8
I00
sg9
g6
sg10
g6
sg12
g6
sS'shared_receipt_with_poi/to_messages'
p388
I0
sg14
I-472568
sg15
g6
sg16
g6
sg17
g6
sg18
g6
sg19
g6
sS'restricted_stock/total_stock_value'
p389
F3.4935256809379585
sg21
g6
sg22
I189518
sg23
g6
sS'from_this_person_to_poi/to_messages'
p390
I0
sg25
g6
sS'exercised_stock_options/total_stock_value'
p391
I0
sg27
I662086
sg28
g6
sS'shared_receipt_with_poi/total_payments'
p392
I0
sS'bonus/total_payments'
p393
I0
sg31
g6
sg32
g6
ssS'LEWIS RICHARD'
p394
(dp395
g3
I952
sS'bonus/salary'
p396
I0
sg5
g6
sg7
g6
sg8
I00
sg9
g6
sg10
S'richard.lewis@enron.com'
p397
sg12
g6
sS'shared_receipt_with_poi/to_messages'
p398
F0.7762605042016807
sg14
g6
sg15
I739
sg16
g6
sg17
I26
sg18
g6
sg19
g6
sS'restricted_stock/total_stock_value'
p399
I0
sg21
g6
sg22
I850477
sg23
I10
sS'from_this_person_to_poi/to_messages'
p400
F0.0
sg25
I0
sS'exercised_stock_options/total_stock_value'
p401
F1.0
sg27
g6
sg28
g6
sS'shared_receipt_with_poi/total_payments'
p402
I0
sS'bonus/total_payments'
p403
I0
sg31
g6
sg32
I850477
ssS'HAYES ROBERT E'
p404
(dp405
g3
I504
sS'bonus/salary'
p406
I0
sg5
I7961
sg7
g6
sg8
I00
sg9
g6
sg10
S'robert.hayes@enron.com'
p407
sg12
g6
sS'shared_receipt_with_poi/to_messages'
p408
F0.0992063492063492
sg14
g6
sg15
I50
sg16
g6
sg17
I12
sg18
g6
sg19
g6
sS'restricted_stock/total_stock_value'
p409
F1.0
sg21
g6
sg22
I151418
sg23
I16
sS'from_this_person_to_poi/to_messages'
p410
F0.0
sg25
I0
sS'exercised_stock_options/total_stock_value'
p411
I0
sg27
I151418
sg28
g6
sS'shared_receipt_with_poi/total_payments'
p412
F0.006280618012812461
sS'bonus/total_payments'
p413
I0
sg31
I7961
sg32
g6
ssS'MCCARTY DANNY J'
p414
(dp415
g3
I1433
sS'bonus/salary'
p416
I0
sg5
g6
sg7
g6
sg8
I00
sg9
g6
sg10
S'danny.mccarty@enron.com'
p417
sg12
g6
sS'shared_receipt_with_poi/to_messages'
p418
F0.35450104675505933
sg14
g6
sg15
I508
sg16
g6
sg17
I215
sg18
g6
sg19
g6
sS'restricted_stock/total_stock_value'
p419
F0.12459103660280052
sg21
g6
sg22
I758931
sg23
I25
sS'from_this_person_to_poi/to_messages'
p420
F0.0013956734124214933
sg25
I2
sS'exercised_stock_options/total_stock_value'
p421
F0.8754089633971995
sg27
I94556
sg28
g6
sS'shared_receipt_with_poi/total_payments'
p422
I0
sS'bonus/total_payments'
p423
I0
sg31
g6
sg32
I664375
ssS'KOPPER MICHAEL J'
p424
(dp425
g3
g6
sS'bonus/salary'
p426
F3.5665723011078665
sg5
g6
sg7
I118134
sg8
I01
sg9
g6
sg10
S'michael.kopper@enron.com'
p427
sg12
I602671
sS'shared_receipt_with_poi/to_messages'
p428
I0
sg14
g6
sg15
g6
sg16
g6
sg17
g6
sg18
I907502
sg19
g6
sS'restricted_stock/total_stock_value'
p429
F1.0
sg21
I800000
sg22
I985032
sg23
g6
sS'from_this_person_to_poi/to_messages'
p430
I0
sg25
g6
sS'exercised_stock_options/total_stock_value'
p431
I0
sg27
I985032
sg28
I224305
sS'shared_receipt_with_poi/total_payments'
p432
I0
sS'bonus/total_payments'
p433
F0.30158952760524343
sg31
I2652612
sg32
g6
ssS'LEFF DANIEL P'
p434
(dp435
g3
I2822
sS'bonus/salary'
p436
F3.653021414011529
sg5
g6
sg7
g6
sg8
I00
sg9
g6
sg10
S'dan.leff@enron.com'
p437
sg12
I1387399
sS'shared_receipt_with_poi/to_messages'
p438
F0.9468462083628633
sg14
g6
sg15
I2672
sg16
g6
sg17
I63
sg18
I3083
sg19
g6
sS'restricted_stock/total_stock_value'
p439
F1.0
sg21
I1000000
sg22
I360528
sg23
I67
sS'from_this_person_to_poi/to_messages'
p440
F0.004961020552799433
sg25
I14
sS'exercised_stock_options/total_stock_value'
p441
I0
sg27
I360528
sg28
I273746
sS'shared_receipt_with_poi/total_payments'
p442
F0.0010029171677499074
sS'bonus/total_payments'
p443
F0.3753432514034084
sg31
I2664228
sg32
g6
ssS'BERBERIAN DAVID'
p444
(dp445
g3
g6
sS'bonus/salary'
p446
I0
sg5
g6
sg7
I11892
sg8
I00
sg9
g6
sg10
S'david.berberian@enron.com'
p447
sg12
g6
sS'shared_receipt_with_poi/to_messages'
p448
I0
sg14
g6
sg15
g6
sg16
g6
sg17
g6
sg18
g6
sg19
g6
sS'restricted_stock/total_stock_value'
p449
F0.34857812911049657
sg21
g6
sg22
I2493616
sg23
g6
sS'from_this_person_to_poi/to_messages'
p450
I0
sg25
g6
sS'exercised_stock_options/total_stock_value'
p451
F0.6514218708895034
sg27
I869220
sg28
I216582
sS'shared_receipt_with_poi/total_payments'
p452
I0
sS'bonus/total_payments'
p453
I0
sg31
I228474
sg32
I1624396
ssS'DETMERING TIMOTHY J'
p454
(dp455
g3
g6
sS'bonus/salary'
p456
F2.019002375296912
sg5
I875307
sg7
I52255
sg8
I00
sg9
I-775241
sg10
S'timothy.detmering@enron.com'
p457
sg12
I415657
sS'shared_receipt_with_poi/to_messages'
p458
I0
sg14
I-315068
sg15
g6
sg16
g6
sg17
g6
sg18
I1105
sg19
g6
sS'restricted_stock/total_stock_value'
p459
F0.15536931699102258
sg21
I425000
sg22
I2027865
sg23
g6
sS'from_this_person_to_poi/to_messages'
p460
I0
sg25
g6
sS'exercised_stock_options/total_stock_value'
p461
F1.0
sg27
I315068
sg28
I210500
sS'shared_receipt_with_poi/total_payments'
p462
I0
sS'bonus/total_payments'
p463
F0.3528191913716199
sg31
I1204583
sg32
I2027865
ssS'WAKEHAM JOHN'
p464
(dp465
g3
g6
sS'bonus/salary'
p466
I0
sg5
g6
sg7
I103773
sg8
I00
sg9
g6
sg10
g6
sg12
g6
sS'shared_receipt_with_poi/to_messages'
p467
I0
sg14
g6
sg15
g6
sg16
g6
sg17
g6
sg18
g6
sg19
I109298
sS'restricted_stock/total_stock_value'
p468
I0
sg21
g6
sg22
g6
sg23
g6
sS'from_this_person_to_poi/to_messages'
p469
I0
sg25
g6
sS'exercised_stock_options/total_stock_value'
p470
I0
sg27
g6
sg28
g6
sS'shared_receipt_with_poi/total_payments'
p471
I0
sS'bonus/total_payments'
p472
I0
sg31
I213071
sg32
g6
ssS'POWERS WILLIAM'
p473
(dp474
g3
I653
sS'bonus/salary'
p475
I0
sg5
g6
sg7
g6
sg8
I00
sg9
I-17500
sg10
S'ken.powers@enron.com'
p476
sg12
g6
sS'shared_receipt_with_poi/to_messages'
p477
F0.018376722817764167
sg14
g6
sg15
I12
sg16
g6
sg17
I26
sg18
g6
sg19
I17500
sS'restricted_stock/total_stock_value'
p478
I0
sg21
g6
sg22
g6
sg23
I0
sS'from_this_person_to_poi/to_messages'
p479
F0.0
sg25
I0
sS'exercised_stock_options/total_stock_value'
p480
I0
sg27
g6
sg28
g6
sS'shared_receipt_with_poi/total_payments'
p481
I0
sS'bonus/total_payments'
p482
I0
sg31
g6
sg32
g6
ssS'GOLD JOSEPH'
p483
(dp484
g3
g6
sS'bonus/salary'
p485
F2.748460861917326
sg5
g6
sg7
g6
sg8
I00
sg9
g6
sg10
S'joe.gold@enron.com'
p486
sg12
I304805
sS'shared_receipt_with_poi/to_messages'
p487
I0
sg14
g6
sg15
g6
sg16
g6
sg17
g6
sg18
I819288
sg19
g6
sS'restricted_stock/total_stock_value'
p488
F0.5026099262657373
sg21
I750000
sg22
I877611
sg23
g6
sS'from_this_person_to_poi/to_messages'
p489
I0
sg25
g6
sS'exercised_stock_options/total_stock_value'
p490
F0.4973900737342627
sg27
I441096
sg28
I272880
sS'shared_receipt_with_poi/total_payments'
p491
I0
sS'bonus/total_payments'
p492
F0.34932903208377564
sg31
I2146973
sg32
I436515
ssS'BANNANTINE JAMES M'
p493
(dp494
g3
I566
sS'bonus/salary'
p495
I0
sg5
g6
sg7
I56301
sg8
I00
sg9
I-5104
sg10
S'james.bannantine@enron.com'
p496
sg12
g6
sS'shared_receipt_with_poi/to_messages'
p497
F0.8215547703180212
sg14
I-560222
sg15
I465
sg16
g6
sg17
I29
sg18
I864523
sg19
g6
sS'restricted_stock/total_stock_value'
p498
F0.33518763372541976
sg21
g6
sg22
I5243487
sg23
I39
sS'from_this_person_to_poi/to_messages'
p499
F0.0
sg25
I0
sS'exercised_stock_options/total_stock_value'
p500
F0.7716538631639595
sg27
I1757552
sg28
I477
sS'shared_receipt_with_poi/total_payments'
p501
F0.0005075327686076248
sS'bonus/total_payments'
p502
I0
sg31
I916197
sg32
I4046157
ssS'DUNCAN JOHN H'
p503
(dp504
g3
g6
sS'bonus/salary'
p505
I0
sg5
g6
sg7
g6
sg8
I00
sg9
I-25000
sg10
g6
sg12
g6
sS'shared_receipt_with_poi/to_messages'
p506
I0
sg14
g6
sg15
g6
sg16
g6
sg17
g6
sg18
g6
sg19
I102492
sS'restricted_stock/total_stock_value'
p507
I0
sg21
g6
sg22
I371750
sg23
g6
sS'from_this_person_to_poi/to_messages'
p508
I0
sg25
g6
sS'exercised_stock_options/total_stock_value'
p509
F1.0
sg27
g6
sg28
g6
sS'shared_receipt_with_poi/total_payments'
p510
I0
sS'bonus/total_payments'
p511
I0
sg31
I77492
sg32
I371750
ssS'SHAPIRO RICHARD S'
p512
(dp513
g3
I15149
sS'bonus/salary'
p514
F2.4156743819590005
sg5
g6
sg7
I137767
sg8
I00
sg9
g6
sg10
S'richard.shapiro@enron.com'
p515
sg12
g6
sS'shared_receipt_with_poi/to_messages'
p516
F0.29883160604660375
sg14
g6
sg15
I4527
sg16
g6
sg17
I1215
sg18
I705
sg19
g6
sS'restricted_stock/total_stock_value'
p517
F0.3841576654937533
sg21
I650000
sg22
I987001
sg23
I74
sS'from_this_person_to_poi/to_messages'
p518
F0.004290712258234867
sg25
I65
sS'exercised_stock_options/total_stock_value'
p519
F0.6158423345062467
sg27
I379164
sg28
I269076
sS'shared_receipt_with_poi/total_payments'
p520
F0.004280656764515653
sS'bonus/total_payments'
p521
F0.6146293123338137
sg31
I1057548
sg32
I607837
ssS'SHERRIFF JOHN R'
p522
(dp523
g3
I3187
sS'bonus/salary'
p524
F3.4982974952189934
sg5
g6
sg7
g6
sg8
I00
sg9
g6
sg10
S'john.sherriff@enron.com'
p525
sg12
I554422
sS'shared_receipt_with_poi/to_messages'
p526
F0.6598682146219015
sg14
g6
sg15
I2103
sg16
g6
sg17
I92
sg18
I1852186
sg19
g6
sS'restricted_stock/total_stock_value'
p527
F0.41336894875074387
sg21
I1500000
sg22
I3128982
sg23
I28
sS'from_this_person_to_poi/to_messages'
p528
F0.0072168183244430495
sg25
I23
sS'exercised_stock_options/total_stock_value'
p529
F0.5866310512492562
sg27
I1293424
sg28
I428780
sS'shared_receipt_with_poi/total_payments'
p530
F0.00048507769085489005
sS'bonus/total_payments'
p531
F0.34598979376240374
sg31
I4335388
sg32
I1835558
ssS'SHELBY REX'
p532
(dp533
g3
I225
sS'bonus/salary'
p534
F0.9440909348388437
sg5
g6
sg7
I22884
sg8
I01
sg9
I-4167
sg10
S'rex.shelby@enron.com'
p535
sg12
g6
sS'shared_receipt_with_poi/to_messages'
p536
F0.40444444444444444
sg14
g6
sg15
I91
sg16
g6
sg17
I39
sg18
I1573324
sg19
g6
sS'restricted_stock/total_stock_value'
p537
F0.34857812911049657
sg21
I200000
sg22
I2493616
sg23
I13
sS'from_this_person_to_poi/to_messages'
p538
F0.06222222222222222
sg25
I14
sS'exercised_stock_options/total_stock_value'
p539
F0.6514218708895034
sg27
I869220
sg28
I211844
sS'shared_receipt_with_poi/total_payments'
p540
F4.5411787602581985e-05
sS'bonus/total_payments'
p541
F0.09980612659908128
sg31
I2003885
sg32
I1624396
ssS'LEMAISTRE CHARLES'
p542
(dp543
g3
g6
sS'bonus/salary'
p544
I0
sg5
g6
sg7
g6
sg8
I00
sg9
I-25000
sg10
g6
sg12
g6
sS'shared_receipt_with_poi/to_messages'
p545
I0
sg14
g6
sg15
g6
sg16
g6
sg17
g6
sg18
g6
sg19
I112492
sS'restricted_stock/total_stock_value'
p546
I0
sg21
g6
sg22
I412878
sg23
g6
sS'from_this_person_to_poi/to_messages'
p547
I0
sg25
g6
sS'exercised_stock_options/total_stock_value'
p548
F1.0
sg27
g6
sg28
g6
sS'shared_receipt_with_poi/total_payments'
p549
I0
sS'bonus/total_payments'
p550
I0
sg31
I87492
sg32
I412878
ssS'DEFFNER JOSEPH M'
p551
(dp552
g3
I714
sS'bonus/salary'
p553
F2.910911551952494
sg5
g6
sg7
I41626
sg8
I00
sg9
g6
sg10
S'joseph.deffner@enron.com'
p554
sg12
I335349
sS'shared_receipt_with_poi/to_messages'
p555
F0.773109243697479
sg14
g6
sg15
I552
sg16
g6
sg17
I74
sg18
I25553
sg19
g6
sS'restricted_stock/total_stock_value'
p556
F0.8908492503658667
sg21
I600000
sg22
I159211
sg23
I115
sS'from_this_person_to_poi/to_messages'
p557
F0.0056022408963585435
sg25
I4
sS'exercised_stock_options/total_stock_value'
p558
F0.10915074963413332
sg27
I141833
sg28
I206121
sS'shared_receipt_with_poi/total_payments'
p559
F0.0004567082751071651
sS'bonus/total_payments'
p560
F0.49642203815996205
sg31
I1208649
sg32
I17378
ssS'KISHKILL JOSEPH G'
p561
(dp562
g3
g6
sS'bonus/salary'
p563
I0
sg5
g6
sg7
I116335
sg8
I00
sg9
I-51042
sg10
S'joe.kishkill@enron.com'
p564
sg12
g6
sS'shared_receipt_with_poi/to_messages'
p565
I0
sg14
g6
sg15
g6
sg16
g6
sg17
g6
sg18
I465357
sg19
g6
sS'restricted_stock/total_stock_value'
p566
F1.0
sg21
g6
sg22
I1034346
sg23
g6
sS'from_this_person_to_poi/to_messages'
p567
I0
sg25
g6
sS'exercised_stock_options/total_stock_value'
p568
I0
sg27
I1034346
sg28
I174246
sS'shared_receipt_with_poi/total_payments'
p569
I0
sS'bonus/total_payments'
p570
I0
sg31
I704896
sg32
g6
ssS'WHALLEY LAWRENCE G'
p571
(dp572
g3
I6019
sS'bonus/salary'
p573
F5.878157550297435
sg5
g6
sg7
I57838
sg8
I00
sg9
g6
sg10
S'greg.whalley@enron.com'
p574
sg12
I808346
sS'shared_receipt_with_poi/to_messages'
p575
F0.6512709752450573
sg14
g6
sg15
I3920
sg16
g6
sg17
I556
sg18
I301026
sg19
g6
sS'restricted_stock/total_stock_value'
p576
F0.4599628203805902
sg21
I3000000
sg22
I6079137
sg23
I186
sS'from_this_person_to_poi/to_messages'
p577
F0.003987373317826882
sg25
I24
sS'exercised_stock_options/total_stock_value'
p578
F0.5400371796194098
sg27
I2796177
sg28
I510364
sS'shared_receipt_with_poi/total_payments'
p579
F0.0008380412581393688
sS'bonus/total_payments'
p580
F0.6413581057189047
sg31
I4677574
sg32
I3282960
ssS'MCCONNELL MICHAEL S'
p581
(dp582
g3
I3329
sS'bonus/salary'
p583
F3.013384907872605
sg5
g6
sg7
I81364
sg8
I00
sg9
g6
sg10
S'mike.mcconnell@enron.com'
p584
sg12
I554422
sS'shared_receipt_with_poi/to_messages'
p585
F0.657554821267648
sg14
g6
sg15
I2189
sg16
g6
sg17
I2742
sg18
I540
sg19
g6
sS'restricted_stock/total_stock_value'
p586
F0.47666430527533965
sg21
I1100000
sg22
I3101279
sg23
I92
sS'from_this_person_to_poi/to_messages'
p587
F0.058275758486031844
sg25
I194
sS'exercised_stock_options/total_stock_value'
p588
F0.5233356947246603
sg27
I1478269
sg28
I365038
sS'shared_receipt_with_poi/total_payments'
p589
F0.0010417043406092425
sS'bonus/total_payments'
p590
F0.5234695178940917
sg31
I2101364
sg32
I1623010
ssS'PIRO JIM'
p591
(dp592
g3
I58
sS'bonus/salary'
p593
I0
sg5
g6
sg7
g6
sg8
I00
sg9
g6
sg10
S'jim.piro@enron.com'
p594
sg12
g6
sS'shared_receipt_with_poi/to_messages'
p595
F0.05172413793103448
sg14
g6
sg15
I3
sg16
g6
sg17
I16
sg18
g6
sg19
g6
sS'restricted_stock/total_stock_value'
p596
F1.0
sg21
g6
sg22
I47304
sg23
I0
sS'from_this_person_to_poi/to_messages'
p597
F0.017241379310344827
sg25
I1
sS'exercised_stock_options/total_stock_value'
p598
I0
sg27
I47304
sg28
g6
sS'shared_receipt_with_poi/total_payments'
p599
I0
sS'bonus/total_payments'
p600
I0
sg31
g6
sg32
g6
ssS'DELAINEY DAVID W'
p601
(dp602
g3
I3093
sS'bonus/salary'
p603
F8.215509238340138
sg5
g6
sg7
I86174
sg8
I01
sg9
g6
sg10
S'david.delainey@enron.com'
p604
sg12
I1294981
sS'shared_receipt_with_poi/to_messages'
p605
F0.6779825412221144
sg14
g6
sg15
I2097
sg16
g6
sg17
I3069
sg18
I1661
sg19
g6
sS'restricted_stock/total_stock_value'
p606
F0.3660908827558386
sg21
I3000000
sg22
I3614261
sg23
I66
sS'from_this_person_to_poi/to_messages'
p607
F0.19689621726479145
sg25
I609
sS'exercised_stock_options/total_stock_value'
p608
F0.6339091172441614
sg27
I1323148
sg28
I365163
sS'shared_receipt_with_poi/total_payments'
p609
F0.0004416615995984818
sS'bonus/total_payments'
p610
F0.6318477819720769
sg31
I4747979
sg32
I2291113
ssS'SULLIVAN-SHAKLOVITZ COLLEEN'
p611
(dp612
g3
g6
sS'bonus/salary'
p613
F0.6143298582741017
sg5
I181993
sg7
g6
sg8
I00
sg9
g6
sg10
g6
sg12
I554422
sS'shared_receipt_with_poi/to_messages'
p614
I0
sg14
g6
sg15
g6
sg16
g6
sg17
g6
sg18
I162
sg19
g6
sS'restricted_stock/total_stock_value'
p615
I0
sg21
I100000
sg22
I1362375
sg23
g6
sS'from_this_person_to_poi/to_messages'
p616
I0
sg25
g6
sS'exercised_stock_options/total_stock_value'
p617
F1.0
sg27
g6
sg28
I162779
sS'shared_receipt_with_poi/total_payments'
p618
I0
sS'bonus/total_payments'
p619
F0.10006444150032621
sg31
I999356
sg32
I1362375
ssS'WROBEL BRUCE'
p620
(dp621
g3
g6
sS'bonus/salary'
p622
I0
sg5
g6
sg7
g6
sg8
I00
sg9
g6
sg10
g6
sg12
g6
sS'shared_receipt_with_poi/to_messages'
p623
I0
sg14
g6
sg15
g6
sg16
g6
sg17
g6
sg18
g6
sg19
g6
sS'restricted_stock/total_stock_value'
p624
I0
sg21
g6
sg22
I139130
sg23
g6
sS'from_this_person_to_poi/to_messages'
p625
I0
sg25
g6
sS'exercised_stock_options/total_stock_value'
p626
F1.0
sg27
g6
sg28
g6
sS'shared_receipt_with_poi/total_payments'
p627
I0
sS'bonus/total_payments'
p628
I0
sg31
g6
sg32
I139130
ssS'LINDHOLM TOD A'
p629
(dp630
g3
g6
sS'bonus/salary'
p631
F0.8458197473536415
sg5
I204075
sg7
I57727
sg8
I00
sg9
g6
sg10
S'tod.lindholm@enron.com'
p632
sg12
I175000
sS'shared_receipt_with_poi/to_messages'
p633
I0
sg14
g6
sg15
g6
sg16
g6
sg17
g6
sg18
I2630
sg19
g6
sS'restricted_stock/total_stock_value'
p634
F0.1680195991916998
sg21
I200000
sg22
I3064208
sg23
g6
sS'from_this_person_to_poi/to_messages'
p635
I0
sg25
g6
sS'exercised_stock_options/total_stock_value'
p636
F0.8319804008083003
sg27
I514847
sg28
I236457
sS'shared_receipt_with_poi/total_payments'
p637
I0
sS'bonus/total_payments'
p638
F0.22833943570475254
sg31
I875889
sg32
I2549361
ssS'MEYER JEROME J'
p639
(dp640
g3
g6
sS'bonus/salary'
p641
I0
sg5
g6
sg7
I2151
sg8
I00
sg9
I-38346
sg10
g6
sg12
g6
sS'shared_receipt_with_poi/to_messages'
p642
I0
sg14
g6
sg15
g6
sg16
g6
sg17
g6
sg18
g6
sg19
I38346
sS'restricted_stock/total_stock_value'
p643
I0
sg21
g6
sg22
g6
sg23
g6
sS'from_this_person_to_poi/to_messages'
p644
I0
sg25
g6
sS'exercised_stock_options/total_stock_value'
p645
I0
sg27
g6
sg28
g6
sS'shared_receipt_with_poi/total_payments'
p646
I0
sS'bonus/total_payments'
p647
I0
sg31
I2151
sg32
g6
ssS'LAY KENNETH L'
p648
(dp649
g3
I4273
sS'bonus/salary'
p650
F6.527896031132468
sg5
I202911
sg7
I99832
sg8
I01
sg9
I-300000
sg10
S'kenneth.lay@enron.com'
p651
sg12
I3600000
sS'shared_receipt_with_poi/to_messages'
p652
F0.5642405803884858
sg14
g6
sg15
I2411
sg16
I81525000
sg17
I36
sg18
I10359729
sg19
g6
sS'restricted_stock/total_stock_value'
p653
F0.30058380277872904
sg21
I7000000
sg22
I49110078
sg23
I123
sS'from_this_person_to_poi/to_messages'
p654
F0.003744441844137608
sg25
I16
sS'exercised_stock_options/total_stock_value'
p655
F0.6994161972212709
sg27
I14761694
sg28
I1072321
sS'shared_receipt_with_poi/total_payments'
p656
F2.328123618400821e-05
sS'bonus/total_payments'
p657
F0.06759380061719514
sg31
I103559793
sg32
I34348384
ssS'BUTTS ROBERT H'
p658
(dp659
g3
g6
sS'bonus/salary'
p660
F2.8678933602532926
sg5
g6
sg7
I9410
sg8
I00
sg9
I-75000
sg10
S'bob.butts@enron.com'
p661
sg12
I175000
sS'shared_receipt_with_poi/to_messages'
p662
I0
sg14
g6
sg15
g6
sg16
g6
sg17
g6
sg18
I150656
sg19
g6
sS'restricted_stock/total_stock_value'
p663
F1.0
sg21
I750000
sg22
I417619
sg23
g6
sS'from_this_person_to_poi/to_messages'
p664
I0
sg25
g6
sS'exercised_stock_options/total_stock_value'
p665
I0
sg27
I417619
sg28
I261516
sS'shared_receipt_with_poi/total_payments'
p666
I0
sS'bonus/total_payments'
p667
F0.5898164648445794
sg31
I1271582
sg32
g6
ssS'OLSON CINDY K'
p668
(dp669
g3
I1184
sS'bonus/salary'
p670
F2.279094925823057
sg5
I77716
sg7
I63791
sg8
I00
sg9
g6
sg10
S'cindy.olson@enron.com'
p671
sg12
I100000
sS'shared_receipt_with_poi/to_messages'
p672
F0.722972972972973
sg14
g6
sg15
I856
sg16
g6
sg17
I52
sg18
I972
sg19
g6
sS'restricted_stock/total_stock_value'
p673
F0.372005049941249
sg21
I750000
sg22
I2606763
sg23
I20
sS'from_this_person_to_poi/to_messages'
p674
F0.01266891891891892
sg25
I15
sS'exercised_stock_options/total_stock_value'
p675
F0.6279949500587511
sg27
I969729
sg28
I329078
sS'shared_receipt_with_poi/total_payments'
p676
F0.0006477208323212695
sS'bonus/total_payments'
p677
F0.5675124114964394
sg31
I1321557
sg32
I1637034
ssS'MCDONALD REBECCA'
p678
(dp679
g3
I894
sS'bonus/salary'
p680
I0
sg5
g6
sg7
g6
sg8
I00
sg9
g6
sg10
S'rebecca.mcdonald@enron.com'
p681
sg12
g6
sS'shared_receipt_with_poi/to_messages'
p682
F0.8053691275167785
sg14
g6
sg15
I720
sg16
g6
sg17
I13
sg18
g6
sg19
g6
sS'restricted_stock/total_stock_value'
p683
F0.5522548046963224
sg21
g6
sg22
I1691366
sg23
I54
sS'from_this_person_to_poi/to_messages'
p684
F0.0011185682326621924
sg25
I1
sS'exercised_stock_options/total_stock_value'
p685
F0.4477451953036776
sg27
I934065
sg28
g6
sS'shared_receipt_with_poi/total_payments'
p686
I0
sS'bonus/total_payments'
p687
I0
sg31
g6
sg32
I757301
ssS'CUMBERLAND MICHAEL S'
p688
(dp689
g3
g6
sS'bonus/salary'
p690
F1.7577163748857485
sg5
g6
sg7
I22344
sg8
I00
sg9
g6
sg10
g6
sg12
I275000
sS'shared_receipt_with_poi/to_messages'
p691
I0
sg14
g6
sg15
g6
sg16
g6
sg17
g6
sg18
I713
sg19
g6
sS'restricted_stock/total_stock_value'
p692
F1.0
sg21
I325000
sg22
I207940
sg23
g6
sS'from_this_person_to_poi/to_messages'
p693
I0
sg25
g6
sS'exercised_stock_options/total_stock_value'
p694
I0
sg27
I207940
sg28
I184899
sS'shared_receipt_with_poi/total_payments'
p695
I0
sS'bonus/total_payments'
p696
F0.4022496274549604
sg31
I807956
sg32
g6
ssS'GAHN ROBERT S'
p697
(dp698
g3
g6
sS'bonus/salary'
p699
F2.6554622724053165
sg5
I73122
sg7
I50080
sg8
I00
sg9
I-1042
sg10
g6
sg12
g6
sS'shared_receipt_with_poi/to_messages'
p700
I0
sg14
g6
sg15
g6
sg16
g6
sg17
g6
sg18
I76547
sg19
g6
sS'restricted_stock/total_stock_value'
p701
F0.7387471085067183
sg21
I509870
sg22
I318607
sg23
g6
sS'from_this_person_to_poi/to_messages'
p702
I0
sg25
g6
sS'exercised_stock_options/total_stock_value'
p703
F0.2612528914932817
sg27
I235370
sg28
I192008
sS'shared_receipt_with_poi/total_payments'
p704
I0
sS'bonus/total_payments'
p705
F0.5661542219779365
sg31
I900585
sg32
I83237
ssS'MCCLELLAN GEORGE'
p706
(dp707
g3
I1744
sS'bonus/salary'
p708
F3.4166878627858153
sg5
g6
sg7
I228763
sg8
I00
sg9
I-125000
sg10
S'george.mcclellan@enron.com'
p709
sg12
g6
sS'shared_receipt_with_poi/to_messages'
p710
F0.8423165137614679
sg14
g6
sg15
I1469
sg16
g6
sg17
I49
sg18
I51587
sg19
g6
sS'restricted_stock/total_stock_value'
p711
F0.46535937231302904
sg21
I900000
sg22
I947861
sg23
I52
sS'from_this_person_to_poi/to_messages'
p712
F0.0
sg25
I0
sS'exercised_stock_options/total_stock_value'
p713
F0.534640627686971
sg27
I441096
sg28
I263413
sS'shared_receipt_with_poi/total_payments'
p714
F0.0011139226684400458
sS'bonus/total_payments'
p715
F0.6824577274309334
sg31
I1318763
sg32
I506765
ssS'HERMANN ROBERT J'
p716
(dp717
g3
g6
sS'bonus/salary'
p718
F2.665011821231007
sg5
g6
sg7
I48357
sg8
I00
sg9
I-280000
sg10
S'robert.hermann@enron.com'
p719
sg12
I150000
sS'shared_receipt_with_poi/to_messages'
p720
I0
sg14
g6
sg15
g6
sg16
g6
sg17
g6
sg18
I416441
sg19
g6
sS'restricted_stock/total_stock_value'
p721
F0.7193668317039148
sg21
I700000
sg22
I668132
sg23
g6
sS'from_this_person_to_poi/to_messages'
p722
I0
sg25
g6
sS'exercised_stock_options/total_stock_value'
p723
F0.2806331682960852
sg27
I480632
sg28
I262663
sS'shared_receipt_with_poi/total_payments'
p724
I0
sS'bonus/total_payments'
p725
F0.5395152532523135
sg31
I1297461
sg32
I187500
ssS'SCRIMSHAW MATTHEW'
p726
(dp727
g3
g6
sS'bonus/salary'
p728
I0
sg5
g6
sg7
g6
sg8
I00
sg9
g6
sg10
S'matthew.scrimshaw@enron.com'
p729
sg12
g6
sS'shared_receipt_with_poi/to_messages'
p730
I0
sg14
g6
sg15
g6
sg16
g6
sg17
g6
sg18
g6
sg19
g6
sS'restricted_stock/total_stock_value'
p731
I0
sg21
g6
sg22
I759557
sg23
g6
sS'from_this_person_to_poi/to_messages'
p732
I0
sg25
g6
sS'exercised_stock_options/total_stock_value'
p733
F1.0
sg27
g6
sg28
g6
sS'shared_receipt_with_poi/total_payments'
p734
I0
sS'bonus/total_payments'
p735
I0
sg31
g6
sg32
I759557
ssS'GATHMANN WILLIAM D'
p736
(dp737
g3
g6
sS'bonus/salary'
p738
I0
sg5
g6
sg7
g6
sg8
I00
sg9
g6
sg10
g6
sg12
g6
sS'shared_receipt_with_poi/to_messages'
p739
I0
sg14
I-72419
sg15
g6
sg16
g6
sg17
g6
sg18
g6
sg19
g6
sS'restricted_stock/total_stock_value'
p740
F0.13571421227947528
sg21
g6
sg22
I1945360
sg23
g6
sS'from_this_person_to_poi/to_messages'
p741
I0
sg25
g6
sS'exercised_stock_options/total_stock_value'
p742
F0.9015123164864087
sg27
I264013
sg28
g6
sS'shared_receipt_with_poi/total_payments'
p743
I0
sS'bonus/total_payments'
p744
I0
sg31
g6
sg32
I1753766
ssS'HAEDICKE MARK E'
p745
(dp746
g3
I4009
sS'bonus/salary'
p747
F3.073838957567658
sg5
I2157527
sg7
I76169
sg8
I00
sg9
I-934484
sg10
S'mark.haedicke@enron.com'
p748
sg12
I983346
sS'shared_receipt_with_poi/to_messages'
p749
F0.4607133948615615
sg14
I-329825
sg15
I1847
sg16
g6
sg17
I1941
sg18
I52382
sg19
g6
sS'restricted_stock/total_stock_value'
p750
F0.6526869830928883
sg21
I1150000
sg22
I803094
sg23
I180
sS'from_this_person_to_poi/to_messages'
p751
F0.015215764529807932
sg25
I61
sS'exercised_stock_options/total_stock_value'
p752
F0.7580059121348186
sg27
I524169
sg28
I374125
sS'shared_receipt_with_poi/total_payments'
p753
F0.000478613342869322
sS'bonus/total_payments'
p754
F0.29799964499172726
sg31
I3859065
sg32
I608750
ssS'BOWEN JR RAYMOND M'
p755
(dp756
g3
I1858
sS'bonus/salary'
p757
F4.845639462887786
sg5
g6
sg7
I65907
sg8
I01
sg9
I-833
sg10
S'raymond.bowen@enron.com'
p758
sg12
I974293
sS'shared_receipt_with_poi/to_messages'
p759
F0.8573735199138859
sg14
g6
sg15
I1593
sg16
g6
sg17
I27
sg18
I1621
sg19
g6
sS'restricted_stock/total_stock_value'
p760
F1.0
sg21
I1350000
sg22
I252055
sg23
I140
sS'from_this_person_to_poi/to_messages'
p761
F0.008073196986006458
sg25
I15
sS'exercised_stock_options/total_stock_value'
p762
I0
sg27
I252055
sg28
I278601
sS'shared_receipt_with_poi/total_payments'
p763
F0.0005967210682992775
sS'bonus/total_payments'
p764
F0.5056958205926081
sg31
I2669589
sg32
g6
ssS'GILLIS JOHN'
p765
(dp766
g3
g6
sS'bonus/salary'
p767
I0
sg5
g6
sg7
g6
sg8
I00
sg9
g6
sg10
g6
sg12
g6
sS'shared_receipt_with_poi/to_messages'
p768
I0
sg14
g6
sg15
g6
sg16
g6
sg17
g6
sg18
g6
sg19
g6
sS'restricted_stock/total_stock_value'
p769
F0.8855337980640114
sg21
g6
sg22
I85641
sg23
g6
sS'from_this_person_to_poi/to_messages'
p770
I0
sg25
g6
sS'exercised_stock_options/total_stock_value'
p771
F0.11446620193598861
sg27
I75838
sg28
g6
sS'shared_receipt_with_poi/total_payments'
p772
I0
sS'bonus/total_payments'
p773
I0
sg31
g6
sg32
I9803
ssS'FITZGERALD JAY L'
p774
(dp775
g3
I936
sS'bonus/salary'
p776
F1.7574074724965731
sg5
g6
sg7
I23870
sg8
I00
sg9
g6
sg10
S'jay.fitzgerald@enron.com'
p777
sg12
I556416
sS'shared_receipt_with_poi/to_messages'
p778
F0.7724358974358975
sg14
g6
sg15
I723
sg16
g6
sg17
I16
sg18
I285414
sg19
g6
sS'restricted_stock/total_stock_value'
p779
F0.5901515880476377
sg21
I350000
sg22
I1621236
sg23
I1
sS'from_this_person_to_poi/to_messages'
p780
F0.008547008547008548
sg25
I8
sS'exercised_stock_options/total_stock_value'
p781
F0.40984841195236227
sg27
I956775
sg28
I199157
sS'shared_receipt_with_poi/total_payments'
p782
F0.0005110057058769897
sS'bonus/total_payments'
p783
F0.24737482303865338
sg31
I1414857
sg32
I664461
ssS'MORAN MICHAEL P'
p784
(dp785
g3
I672
sS'bonus/salary'
p786
I0
sg5
g6
sg7
g6
sg8
I00
sg9
g6
sg10
S'michael.moran@enron.com'
p787
sg12
g6
sS'shared_receipt_with_poi/to_messages'
p788
F0.18898809523809523
sg14
g6
sg15
I127
sg16
g6
sg17
I19
sg18
g6
sg19
g6
sS'restricted_stock/total_stock_value'
p789
F0.7307645348442848
sg21
g6
sg22
I221141
sg23
I0
sS'from_this_person_to_poi/to_messages'
p790
F0.0
sg25
I0
sS'exercised_stock_options/total_stock_value'
p791
F0.2692354651557151
sg27
I161602
sg28
g6
sS'shared_receipt_with_poi/total_payments'
p792
I0
sS'bonus/total_payments'
p793
I0
sg31
g6
sg32
I59539
ssS'REDMOND BRIAN L'
p794
(dp795
g3
I1671
sS'bonus/salary'
p796
I0
sg5
g6
sg7
I14689
sg8
I00
sg9
g6
sg10
S'brian.redmond@enron.com'
p797
sg12
g6
sS'shared_receipt_with_poi/to_messages'
p798
F0.6361460203470976
sg14
g6
sg15
I1063
sg16
g6
sg17
I221
sg18
g6
sg19
g6
sS'restricted_stock/total_stock_value'
p799
F0.048323110685949015
sg21
g6
sg22
I7890324
sg23
I204
sS'from_this_person_to_poi/to_messages'
p800
F0.029323758228605626
sg25
I49
sS'exercised_stock_options/total_stock_value'
p801
F0.951676889314051
sg27
I381285
sg28
I96840
sS'shared_receipt_with_poi/total_payments'
p802
F0.009531153332317155
sS'bonus/total_payments'
p803
I0
sg31
I111529
sg32
I7509039
ssS'BAZELIDES PHILIP J'
p804
(dp805
g3
g6
sS'bonus/salary'
p806
I0
sg5
I684694
sg7
g6
sg8
I00
sg9
g6
sg10
g6
sg12
I93750
sS'shared_receipt_with_poi/to_messages'
p807
I0
sg14
g6
sg15
g6
sg16
g6
sg17
g6
sg18
I874
sg19
g6
sS'restricted_stock/total_stock_value'
p808
I0
sg21
g6
sg22
I1599641
sg23
g6
sS'from_this_person_to_poi/to_messages'
p809
I0
sg25
g6
sS'exercised_stock_options/total_stock_value'
p810
F1.0
sg27
g6
sg28
I80818
sS'shared_receipt_with_poi/total_payments'
p811
I0
sS'bonus/total_payments'
p812
I0
sg31
I860136
sg32
I1599641
ssS'BELDEN TIMOTHY N'
p813
(dp814
g3
I7991
sS'bonus/salary'
p815
F24.532820246823583
sg5
I2144013
sg7
I17355
sg8
I01
sg9
I-2334434
sg10
S'tim.belden@enron.com'
p816
sg12
g6
sS'shared_receipt_with_poi/to_messages'
p817
F0.6909022650481792
sg14
g6
sg15
I5521
sg16
g6
sg17
I484
sg18
I210698
sg19
g6
sS'restricted_stock/total_stock_value'
p818
F0.1418639512741907
sg21
I5249999
sg22
I1110705
sg23
I228
sS'from_this_person_to_poi/to_messages'
p819
F0.013515204605180828
sg25
I108
sS'exercised_stock_options/total_stock_value'
p820
F0.8581360487258093
sg27
I157569
sg28
I213999
sS'shared_receipt_with_poi/total_payments'
p821
F0.0010035207747522098
sS'bonus/total_payments'
p822
F0.9542624640333864
sg31
I5501630
sg32
I953136
ssS'DURAN WILLIAM D'
p823
(dp824
g3
I904
sS'bonus/salary'
p825
F3.559698517266911
sg5
g6
sg7
I25785
sg8
I00
sg9
g6
sg10
S'w.duran@enron.com'
p826
sg12
I1105218
sS'shared_receipt_with_poi/to_messages'
p827
F0.6626106194690266
sg14
g6
sg15
I599
sg16
g6
sg17
I12
sg18
I1568
sg19
g6
sS'restricted_stock/total_stock_value'
p828
F0.11520497772577411
sg21
I750000
sg22
I1640910
sg23
I106
sS'from_this_person_to_poi/to_messages'
p829
F0.00331858407079646
sg25
I3
sS'exercised_stock_options/total_stock_value'
p830
F0.8847950222742259
sg27
I189041
sg28
I210692
sS'shared_receipt_with_poi/total_payments'
p831
F0.0002861561112960961
sS'bonus/total_payments'
p832
F0.3582922929416896
sg31
I2093263
sg32
I1451869
ssS'THORN TERENCE H'
p833
(dp834
g3
I266
sS'bonus/salary'
p835
I0
sg5
I16586
sg7
I46145
sg8
I00
sg9
g6
sg10
S'terence.thorn@enron.com'
p836
sg12
I200000
sS'shared_receipt_with_poi/to_messages'
p837
F0.2744360902255639
sg14
g6
sg15
I73
sg16
g6
sg17
I41
sg18
I426629
sg19
g6
sS'restricted_stock/total_stock_value'
p838
F0.07582720397459751
sg21
g6
sg22
I4817796
sg23
I0
sS'from_this_person_to_poi/to_messages'
p839
F0.0
sg25
I0
sS'exercised_stock_options/total_stock_value'
p840
F0.9241727960254025
sg27
I365320
sg28
I222093
sS'shared_receipt_with_poi/total_payments'
p841
F8.009189722344432e-05
sS'bonus/total_payments'
p842
I0
sg31
I911453
sg32
I4452476
ssS'FASTOW ANDREW S'
p843
(dp844
g3
g6
sS'bonus/salary'
p845
F2.949865894558178
sg5
g6
sg7
I55921
sg8
I01
sg9
I-1386055
sg10
S'andrew.fastow@enron.com'
p846
sg12
I1736055
sS'shared_receipt_with_poi/to_messages'
p847
I0
sg14
g6
sg15
g6
sg16
g6
sg17
g6
sg18
I277464
sg19
g6
sS'restricted_stock/total_stock_value'
p848
F1.0
sg21
I1300000
sg22
I1794412
sg23
g6
sS'from_this_person_to_poi/to_messages'
p849
I0
sg25
g6
sS'exercised_stock_options/total_stock_value'
p850
I0
sg27
I1794412
sg28
I440698
sS'shared_receipt_with_poi/total_payments'
p851
I0
sS'bonus/total_payments'
p852
F0.5362852674599013
sg31
I2424083
sg32
g6
ssS'FOY JOE'
p853
(dp854
g3
I57
sS'bonus/salary'
p855
I0
sg5
I181755
sg7
g6
sg8
I00
sg9
g6
sg10
S'tracy.foy@enron.com'
p856
sg12
g6
sS'shared_receipt_with_poi/to_messages'
p857
F0.03508771929824561
sg14
g6
sg15
I2
sg16
g6
sg17
I13
sg18
g6
sg19
g6
sS'restricted_stock/total_stock_value'
p858
I0
sg21
g6
sg22
I343434
sg23
I0
sS'from_this_person_to_poi/to_messages'
p859
F0.0
sg25
I0
sS'exercised_stock_options/total_stock_value'
p860
F1.0
sg27
g6
sg28
g6
sS'shared_receipt_with_poi/total_payments'
p861
F1.1003823828780501e-05
sS'bonus/total_payments'
p862
I0
sg31
I181755
sg32
I343434
ssS'CALGER CHRISTOPHER F'
p863
(dp864
g3
I2598
sS'bonus/salary'
p865
F5.204234998272194
sg5
g6
sg7
I35818
sg8
I01
sg9
I-262500
sg10
S'christopher.calger@enron.com'
p866
sg12
I375304
sS'shared_receipt_with_poi/to_messages'
p867
F0.8421862971516552
sg14
g6
sg15
I2188
sg16
g6
sg17
I144
sg18
I486
sg19
g6
sS'restricted_stock/total_stock_value'
p868
F1.0
sg21
I1250000
sg22
I126027
sg23
I199
sS'from_this_person_to_poi/to_messages'
p869
F0.00962278675904542
sg25
I25
sS'exercised_stock_options/total_stock_value'
p870
I0
sg27
I126027
sg28
I240189
sS'shared_receipt_with_poi/total_payments'
p871
F0.0013347184799337765
sS'bonus/total_payments'
p872
F0.7625219835087845
sg31
I1639297
sg32
g6
ssS'RICE KENNETH D'
p873
(dp874
g3
I905
sS'bonus/salary'
p875
F4.160366682832663
sg5
g6
sg7
I46950
sg8
I01
sg9
I-3504386
sg10
S'ken.rice@enron.com'
p876
sg12
I1617011
sS'shared_receipt_with_poi/to_messages'
p877
F0.9546961325966851
sg14
g6
sg15
I864
sg16
g6
sg17
I18
sg18
I174839
sg19
g6
sS'restricted_stock/total_stock_value'
p878
F0.12191900832466121
sg21
I1750000
sg22
I22542539
sg23
I42
sS'from_this_person_to_poi/to_messages'
p879
F0.004419889502762431
sg25
I4
sS'exercised_stock_options/total_stock_value'
p880
F0.8780809916753388
sg27
I2748364
sg28
I420636
sS'shared_receipt_with_poi/total_payments'
p881
F0.0017107217107217108
sS'bonus/total_payments'
p882
F3.465003465003465
sg31
I505050
sg32
I19794175
ssS'LOCKHART EUGENE E'
p883
(dp884
g3
g6
sS'bonus/salary'
p885
I0
sg5
g6
sg7
g6
sg8
I00
sg9
g6
sg10
g6
sg12
g6
sS'shared_receipt_with_poi/to_messages'
p886
I0
sg14
g6
sg15
g6
sg16
g6
sg17
g6
sg18
g6
sg19
g6
sS'restricted_stock/total_stock_value'
p887
I0
sg21
g6
sg22
g6
sg23
g6
sS'from_this_person_to_poi/to_messages'
p888
I0
sg25
g6
sS'exercised_stock_options/total_stock_value'
p889
I0
sg27
g6
sg28
g6
sS'shared_receipt_with_poi/total_payments'
p890
I0
sS'bonus/total_payments'
p891
I0
sg31
g6
sg32
g6
ssS'COX DAVID'
p892
(dp893
g3
I102
sS'bonus/salary'
p894
F2.5454360331924857
sg5
g6
sg7
I27861
sg8
I00
sg9
I-41250
sg10
S'chip.cox@enron.com'
p895
sg12
g6
sS'shared_receipt_with_poi/to_messages'
p896
F0.696078431372549
sg14
g6
sg15
I71
sg16
g6
sg17
I33
sg18
I494
sg19
g6
sS'restricted_stock/total_stock_value'
p897
F0.7628265268858208
sg21
I800000
sg22
I495633
sg23
I0
sS'from_this_person_to_poi/to_messages'
p898
F0.0392156862745098
sg25
I4
sS'exercised_stock_options/total_stock_value'
p899
F0.23717347311417925
sg27
I378082
sg28
I314288
sS'shared_receipt_with_poi/total_payments'
p900
F6.446381990806188e-05
sS'bonus/total_payments'
p901
F0.7263529003725282
sg31
I1101393
sg32
I117551
ssS'OVERDYKE JR JERE C'
p902
(dp903
g3
g6
sS'bonus/salary'
p904
I0
sg5
g6
sg7
I18834
sg8
I00
sg9
g6
sg10
S'jere.overdyke@enron.com'
p905
sg12
I135836
sS'shared_receipt_with_poi/to_messages'
p906
I0
sg14
g6
sg15
g6
sg16
g6
sg17
g6
sg18
I176
sg19
g6
sS'restricted_stock/total_stock_value'
p907
F0.2793006836449863
sg21
g6
sg22
I7307594
sg23
g6
sS'from_this_person_to_poi/to_messages'
p908
I0
sg25
g6
sS'exercised_stock_options/total_stock_value'
p909
F0.7206993163550137
sg27
I2041016
sg28
I94941
sS'shared_receipt_with_poi/total_payments'
p910
I0
sS'bonus/total_payments'
p911
I0
sg31
I249787
sg32
I5266578
ssS'PEREIRA PAULO V. FERRAZ'
p912
(dp913
g3
g6
sS'bonus/salary'
p914
I0
sg5
g6
sg7
I27942
sg8
I00
sg9
I-101250
sg10
g6
sg12
g6
sS'shared_receipt_with_poi/to_messages'
p915
I0
sg14
g6
sg15
g6
sg16
g6
sg17
g6
sg18
g6
sg19
I101250
sS'restricted_stock/total_stock_value'
p916
I0
sg21
g6
sg22
g6
sg23
g6
sS'from_this_person_to_poi/to_messages'
p917
I0
sg25
g6
sS'exercised_stock_options/total_stock_value'
p918
I0
sg27
g6
sg28
g6
sS'shared_receipt_with_poi/total_payments'
p919
I0
sS'bonus/total_payments'
p920
I0
sg31
I27942
sg32
g6
ssS'STABLER FRANK'
p921
(dp922
g3
g6
sS'bonus/salary'
p923
F2.0876652387036434
sg5
g6
sg7
I16514
sg8
I00
sg9
g6
sg10
S'frank.stabler@enron.com'
p924
sg12
g6
sS'shared_receipt_with_poi/to_messages'
p925
I0
sg14
g6
sg15
g6
sg16
g6
sg17
g6
sg18
I356071
sg19
g6
sS'restricted_stock/total_stock_value'
p926
F1.0
sg21
I500000
sg22
I511734
sg23
g6
sS'from_this_person_to_poi/to_messages'
p927
I0
sg25
g6
sS'exercised_stock_options/total_stock_value'
p928
I0
sg27
I511734
sg28
I239502
sS'shared_receipt_with_poi/total_payments'
p929
I0
sS'bonus/total_payments'
p930
F0.44960511183027946
sg31
I1112087
sg32
g6
ssS'SKILLING JEFFREY K'
p931
(dp932
g3
I3627
sS'bonus/salary'
p933
F5.03933380007163
sg5
g6
sg7
I29336
sg8
I01
sg9
g6
sg10
S'jeff.skilling@enron.com'
p934
sg12
I1920000
sS'shared_receipt_with_poi/to_messages'
p935
F0.5629997242900469
sg14
g6
sg15
I2042
sg16
g6
sg17
I108
sg18
I22122
sg19
g6
sS'restricted_stock/total_stock_value'
p936
F0.2622732438730739
sg21
I5600000
sg22
I26093672
sg23
I88
sS'from_this_person_to_poi/to_messages'
p937
F0.008271298593879239
sg25
I30
sS'exercised_stock_options/total_stock_value'
p938
F0.7377267561269261
sg27
I6843672
sg28
I1111258
sS'shared_receipt_with_poi/total_payments'
p939
F0.00023517986768195574
sS'bonus/total_payments'
p940
F0.6449594804206426
sg31
I8682716
sg32
I19250000
ssS'BLAKE JR. NORMAN P'
p941
(dp942
g3
g6
sS'bonus/salary'
p943
I0
sg5
g6
sg7
I1279
sg8
I00
sg9
I-113784
sg10
g6
sg12
g6
sS'shared_receipt_with_poi/to_messages'
p944
I0
sg14
g6
sg15
g6
sg16
g6
sg17
g6
sg18
g6
sg19
I113784
sS'restricted_stock/total_stock_value'
p945
I0
sg21
g6
sg22
g6
sg23
g6
sS'from_this_person_to_poi/to_messages'
p946
I0
sg25
g6
sS'exercised_stock_options/total_stock_value'
p947
I0
sg27
g6
sg28
g6
sS'shared_receipt_with_poi/total_payments'
p948
I0
sS'bonus/total_payments'
p949
I0
sg31
I1279
sg32
g6
ssS'SHERRICK JEFFREY B'
p950
(dp951
g3
I613
sS'bonus/salary'
p952
I0
sg5
g6
sg7
g6
sg8
I00
sg9
g6
sg10
S'jeffrey.sherrick@enron.com'
p953
sg12
g6
sS'shared_receipt_with_poi/to_messages'
p954
F0.9510603588907015
sg14
g6
sg15
I583
sg16
g6
sg17
I25
sg18
g6
sg19
g6
sS'restricted_stock/total_stock_value'
p955
F0.22155857564770573
sg21
g6
sg22
I1832468
sg23
I39
sS'from_this_person_to_poi/to_messages'
p956
F0.02936378466557912
sg25
I18
sS'exercised_stock_options/total_stock_value'
p957
F0.7784414243522942
sg27
I405999
sg28
g6
sS'shared_receipt_with_poi/total_payments'
p958
I0
sS'bonus/total_payments'
p959
I0
sg31
g6
sg32
I1426469
ssS'PRENTICE JAMES'
p960
(dp961
g3
g6
sS'bonus/salary'
p962
I0
sg5
I564348
sg7
g6
sg8
I00
sg9
g6
sg10
S'james.prentice@enron.com'
p963
sg12
g6
sS'shared_receipt_with_poi/to_messages'
p964
I0
sg14
g6
sg15
g6
sg16
g6
sg17
g6
sg18
g6
sg19
g6
sS'restricted_stock/total_stock_value'
p965
F0.19068618497954412
sg21
g6
sg22
I1095040
sg23
g6
sS'from_this_person_to_poi/to_messages'
p966
I0
sg25
g6
sS'exercised_stock_options/total_stock_value'
p967
F0.8093138150204559
sg27
I208809
sg28
g6
sS'shared_receipt_with_poi/total_payments'
p968
I0
sS'bonus/total_payments'
p969
I0
sg31
I564348
sg32
I886231
ssS'GRAY RODNEY'
p970
(dp971
g3
g6
sS'bonus/salary'
p972
I0
sg5
I93585
sg7
g6
sg8
I00
sg9
g6
sg10
g6
sg12
I365625
sS'shared_receipt_with_poi/to_messages'
p973
I0
sg14
g6
sg15
g6
sg16
g6
sg17
g6
sg18
I680833
sg19
g6
sS'restricted_stock/total_stock_value'
p974
I0
sg21
g6
sg22
g6
sg23
g6
sS'from_this_person_to_poi/to_messages'
p975
I0
sg25
g6
sS'exercised_stock_options/total_stock_value'
p976
I0
sg27
g6
sg28
I6615
sS'shared_receipt_with_poi/total_payments'
p977
I0
sS'bonus/total_payments'
p978
I0
sg31
I1146658
sg32
g6
ssS'PICKERING MARK R'
p979
(dp980
g3
I898
sS'bonus/salary'
p981
F0.45798939601885086
sg5
g6
sg7
I31653
sg8
I00
sg9
g6
sg10
S'mark.pickering@enron.com'
p982
sg12
g6
sS'shared_receipt_with_poi/to_messages'
p983
F0.8106904231625836
sg14
g6
sg15
I728
sg16
I400000
sg17
I67
sg18
g6
sg19
g6
sS'restricted_stock/total_stock_value'
p984
I0
sg21
I300000
sg22
I28798
sg23
I7
sS'from_this_person_to_poi/to_messages'
p985
F0.0
sg25
I0
sS'exercised_stock_options/total_stock_value'
p986
F1.0
sg27
g6
sg28
I655037
sS'shared_receipt_with_poi/total_payments'
p987
F0.0005249911660140334
sS'bonus/total_payments'
p988
F0.21634251346732147
sg31
I1386690
sg32
I28798
ssS'THE TRAVEL AGENCY IN THE PARK'
p989
(dp990
g3
g6
sS'bonus/salary'
p991
I0
sg5
g6
sg7
g6
sg8
I00
sg9
g6
sg10
g6
sg12
g6
sS'shared_receipt_with_poi/to_messages'
p992
I0
sg14
g6
sg15
g6
sg16
g6
sg17
g6
sg18
I362096
sg19
g6
sS'restricted_stock/total_stock_value'
p993
I0
sg21
g6
sg22
g6
sg23
g6
sS'from_this_person_to_poi/to_messages'
p994
I0
sg25
g6
sS'exercised_stock_options/total_stock_value'
p995
I0
sg27
g6
sg28
g6
sS'shared_receipt_with_poi/total_payments'
p996
I0
sS'bonus/total_payments'
p997
I0
sg31
I362096
sg32
g6
ssS'NOLES JAMES L'
p998
(dp999
g3
g6
sS'bonus/salary'
p1000
I0
sg5
I774401
sg7
g6
sg8
I00
sg9
g6
sg10
g6
sg12
g6
sS'shared_receipt_with_poi/to_messages'
p1001
I0
sg14
I-94556
sg15
g6
sg16
g6
sg17
g6
sg18
g6
sg19
g6
sS'restricted_stock/total_stock_value'
p1002
F1.2564543469711558
sg21
g6
sg22
I368705
sg23
g6
sS'from_this_person_to_poi/to_messages'
p1003
I0
sg25
g6
sS'exercised_stock_options/total_stock_value'
p1004
I0
sg27
I463261
sg28
g6
sS'shared_receipt_with_poi/total_payments'
p1005
I0
sS'bonus/total_payments'
p1006
I0
sg31
I774401
sg32
g6
ssS'KEAN STEVEN J'
p1007
(dp1008
g3
I12754
sS'bonus/salary'
p1009
F2.473178380463869
sg5
g6
sg7
I41953
sg8
I00
sg9
g6
sg10
S'steven.kean@enron.com'
p1010
sg12
I300000
sS'shared_receipt_with_poi/to_messages'
p1011
F0.2853222518425592
sg14
g6
sg15
I3639
sg16
g6
sg17
I6759
sg18
I1231
sg19
g6
sS'restricted_stock/total_stock_value'
p1012
F0.6714062989039662
sg21
I1000000
sg22
I6153642
sg23
I140
sS'from_this_person_to_poi/to_messages'
p1013
F0.03034342167163243
sg25
I387
sS'exercised_stock_options/total_stock_value'
p1014
F0.32859370109603386
sg27
I4131594
sg28
I404338
sS'shared_receipt_with_poi/total_payments'
p1015
F0.0020823772175686487
sS'bonus/total_payments'
p1016
F0.5722388616566773
sg31
I1747522
sg32
I2022048
ssS'FOWLER PEGGY'
p1017
(dp1018
g3
I517
sS'bonus/salary'
p1019
I0
sg5
g6
sg7
g6
sg8
I00
sg9
g6
sg10
S'kulvinder.fowler@enron.com'
p1020
sg12
g6
sS'shared_receipt_with_poi/to_messages'
p1021
F0.019342359767891684
sg14
g6
sg15
I10
sg16
g6
sg17
I36
sg18
g6
sg19
g6
sS'restricted_stock/total_stock_value'
p1022
F0.29721214719421374
sg21
g6
sg22
I1884748
sg23
I0
sS'from_this_person_to_poi/to_messages'
p1023
F0.0
sg25
I0
sS'exercised_stock_options/total_stock_value'
p1024
F0.7027878528057863
sg27
I560170
sg28
g6
sS'shared_receipt_with_poi/total_payments'
p1025
I0
sS'bonus/total_payments'
p1026
I0
sg31
g6
sg32
I1324578
ssS'WASAFF GEORGE'
p1027
(dp1028
g3
I400
sS'bonus/salary'
p1029
F1.2500192310650933
sg5
I831299
sg7
g6
sg8
I00
sg9
I-583325
sg10
S'george.wasaff@enron.com'
p1030
sg12
I200000
sS'shared_receipt_with_poi/to_messages'
p1031
F0.8425
sg14
g6
sg15
I337
sg16
g6
sg17
I30
sg18
I1425
sg19
g6
sS'restricted_stock/total_stock_value'
p1032
F0.1887579768209618
sg21
I325000
sg22
I2056427
sg23
I22
sS'from_this_person_to_poi/to_messages'
p1033
F0.0175
sg25
I7
sS'exercised_stock_options/total_stock_value'
p1034
F0.8112420231790382
sg27
I388167
sg28
I259996
sS'shared_receipt_with_poi/total_payments'
p1035
F0.00032579430488353093
sS'bonus/total_payments'
p1036
F0.3141933207333755
sg31
I1034395
sg32
I1668260
ssS'WHITE JR THOMAS E'
p1037
(dp1038
g3
g6
sS'bonus/salary'
p1039
F1.417130908254945
sg5
g6
sg7
I81353
sg8
I00
sg9
g6
sg10
S'thomas.white@enron.com'
p1040
sg12
g6
sS'shared_receipt_with_poi/to_messages'
p1041
I0
sg14
g6
sg15
g6
sg16
g6
sg17
g6
sg18
I1085463
sg19
g6
sS'restricted_stock/total_stock_value'
p1042
F0.9143529803607644
sg21
I450000
sg22
I15144123
sg23
g6
sS'from_this_person_to_poi/to_messages'
p1043
I0
sg25
g6
sS'exercised_stock_options/total_stock_value'
p1044
F0.08564701963923563
sg27
I13847074
sg28
I317543
sS'shared_receipt_with_poi/total_payments'
p1045
I0
sS'bonus/total_payments'
p1046
F0.23263520370313887
sg31
I1934359
sg32
I1297049
ssS'CHRISTODOULOU DIOMEDES'
p1047
(dp1048
g3
g6
sS'bonus/salary'
p1049
I0
sg5
g6
sg7
g6
sg8
I00
sg9
g6
sg10
S'diomedes.christodoulou@enron.com'
p1050
sg12
g6
sS'shared_receipt_with_poi/to_messages'
p1051
I0
sg14
g6
sg15
g6
sg16
g6
sg17
g6
sg18
g6
sg19
g6
sS'restricted_stock/total_stock_value'
p1052
F0.15642447989720107
sg21
g6
sg22
I6077885
sg23
g6
sS'from_this_person_to_poi/to_messages'
p1053
I0
sg25
g6
sS'exercised_stock_options/total_stock_value'
p1054
F0.8435755201027989
sg27
I950730
sg28
g6
sS'shared_receipt_with_poi/total_payments'
p1055
I0
sS'bonus/total_payments'
p1056
I0
sg31
g6
sg32
I5127155
ssS'ALLEN PHILLIP K'
p1057
(dp1058
g3
I2902
sS'bonus/salary'
p1059
F20.672922185635414
sg5
I2869717
sg7
I13868
sg8
I00
sg9
I-3081055
sg10
S'phillip.allen@enron.com'
p1060
sg12
I304805
sS'shared_receipt_with_poi/to_messages'
p1061
F0.4848380427291523
sg14
I-126027
sg15
I1407
sg16
g6
sg17
I2195
sg18
I152
sg19
g6
sS'restricted_stock/total_stock_value'
p1062
F0.07286730988163911
sg21
I4175000
sg22
I1729541
sg23
I47
sS'from_this_person_to_poi/to_messages'
p1063
F0.022398345968297727
sg25
I65
sS'exercised_stock_options/total_stock_value'
p1064
F1.0
sg27
I126027
sg28
I201955
sS'shared_receipt_with_poi/total_payments'
p1065
F0.00031375140987440576
sS'bonus/total_payments'
p1066
F0.9309965431596617
sg31
I4484442
sg32
I1729541
ssS'SHARP VICTORIA T'
p1067
(dp1068
g3
I3136
sS'bonus/salary'
p1069
F2.417931379107461
sg5
I187469
sg7
I116337
sg8
I00
sg9
g6
sg10
S'vicki.sharp@enron.com'
p1070
sg12
I422158
sS'shared_receipt_with_poi/to_messages'
p1071
F0.7898596938775511
sg14
g6
sg15
I2477
sg16
g6
sg17
I136
sg18
I2401
sg19
g6
sS'restricted_stock/total_stock_value'
p1072
F0.43118291320608093
sg21
I600000
sg22
I494136
sg23
I24
sS'from_this_person_to_poi/to_messages'
p1073
F0.001913265306122449
sg25
I6
sS'exercised_stock_options/total_stock_value'
p1074
F0.5688170867939191
sg27
I213063
sg28
I248146
sS'shared_receipt_with_poi/total_payments'
p1075
F0.001571191066855861
sS'bonus/total_payments'
p1076
F0.38058725882661143
sg31
I1576511
sg32
I281073
ssS'JAEDICKE ROBERT'
p1077
(dp1078
g3
g6
sS'bonus/salary'
p1079
I0
sg5
g6
sg7
g6
sg8
I00
sg9
I-25000
sg10
g6
sg12
g6
sS'shared_receipt_with_poi/to_messages'
p1080
I0
sg14
I-44093
sg15
g6
sg16
g6
sg17
g6
sg18
g6
sg19
I108750
sS'restricted_stock/total_stock_value'
p1081
F0.10212623045744065
sg21
g6
sg22
I431750
sg23
g6
sS'from_this_person_to_poi/to_messages'
p1082
I0
sg25
g6
sS'exercised_stock_options/total_stock_value'
p1083
F1.0
sg27
I44093
sg28
g6
sS'shared_receipt_with_poi/total_payments'
p1084
I0
sS'bonus/total_payments'
p1085
I0
sg31
I83750
sg32
I431750
ssS'WINOKUR JR. HERBERT S'
p1086
(dp1087
g3
g6
sS'bonus/salary'
p1088
I0
sg5
g6
sg7
I1413
sg8
I00
sg9
I-25000
sg10
g6
sg12
g6
sS'shared_receipt_with_poi/to_messages'
p1089
I0
sg14
g6
sg15
g6
sg16
g6
sg17
g6
sg18
g6
sg19
I108579
sS'restricted_stock/total_stock_value'
p1090
I0
sg21
g6
sg22
g6
sg23
g6
sS'from_this_person_to_poi/to_messages'
p1091
I0
sg25
g6
sS'exercised_stock_options/total_stock_value'
p1092
I0
sg27
g6
sg28
g6
sS'shared_receipt_with_poi/total_payments'
p1093
I0
sS'bonus/total_payments'
p1094
I0
sg31
I84992
sg32
g6
ssS'BROWN MICHAEL'
p1095
(dp1096
g3
I1486
sS'bonus/salary'
p1097
I0
sg5
g6
sg7
I49288
sg8
I00
sg9
g6
sg10
S'michael.brown@enron.com'
p1098
sg12
g6
sS'shared_receipt_with_poi/to_messages'
p1099
F0.5121130551816958
sg14
g6
sg15
I761
sg16
g6
sg17
I41
sg18
g6
sg19
g6
sS'restricted_stock/total_stock_value'
p1100
I0
sg21
g6
sg22
g6
sg23
I13
sS'from_this_person_to_poi/to_messages'
p1101
F0.0006729475100942127
sg25
I1
sS'exercised_stock_options/total_stock_value'
p1102
I0
sg27
g6
sg28
g6
sS'shared_receipt_with_poi/total_payments'
p1103
F0.015439863658496998
sS'bonus/total_payments'
p1104
I0
sg31
I49288
sg32
g6
ssS'BADUM JAMES P'
p1105
(dp1106
g3
g6
sS'bonus/salary'
p1107
I0
sg5
I178980
sg7
I3486
sg8
I00
sg9
g6
sg10
g6
sg12
g6
sS'shared_receipt_with_poi/to_messages'
p1108
I0
sg14
g6
sg15
g6
sg16
g6
sg17
g6
sg18
g6
sg19
g6
sS'restricted_stock/total_stock_value'
p1109
I0
sg21
g6
sg22
I257817
sg23
g6
sS'from_this_person_to_poi/to_messages'
p1110
I0
sg25
g6
sS'exercised_stock_options/total_stock_value'
p1111
F1.0
sg27
g6
sg28
g6
sS'shared_receipt_with_poi/total_payments'
p1112
I0
sS'bonus/total_payments'
p1113
I0
sg31
I182466
sg32
I257817
ssS'HUGHES JAMES A'
p1114
(dp1115
g3
I719
sS'bonus/salary'
p1116
I0
sg5
g6
sg7
g6
sg8
I00
sg9
g6
sg10
S'james.hughes@enron.com'
p1117
sg12
g6
sS'shared_receipt_with_poi/to_messages'
p1118
F0.8191933240611962
sg14
g6
sg15
I589
sg16
g6
sg17
I34
sg18
g6
sg19
g6
sS'restricted_stock/total_stock_value'
p1119
F0.3249552483293008
sg21
g6
sg22
I1118394
sg23
I35
sS'from_this_person_to_poi/to_messages'
p1120
F0.006954102920723227
sg25
I5
sS'exercised_stock_options/total_stock_value'
p1121
F0.6750447516706992
sg27
I363428
sg28
g6
sS'shared_receipt_with_poi/total_payments'
p1122
I0
sS'bonus/total_payments'
p1123
I0
sg31
g6
sg32
I754966
ssS'REYNOLDS LAWRENCE'
p1124
(dp1125
g3
g6
sS'bonus/salary'
p1126
F1.3089176559902616
sg5
I51365
sg7
I8409
sg8
I00
sg9
I-200000
sg10
g6
sg12
I156250
sS'shared_receipt_with_poi/to_messages'
p1127
I0
sg14
I-140264
sg15
g6
sg16
g6
sg17
g6
sg18
I202052
sg19
g6
sS'restricted_stock/total_stock_value'
p1128
F0.047723401670009956
sg21
I100000
sg22
I4221891
sg23
g6
sS'from_this_person_to_poi/to_messages'
p1129
I0
sg25
g6
sS'exercised_stock_options/total_stock_value'
p1130
F0.9854996256416853
sg27
I201483
sg28
I76399
sS'shared_receipt_with_poi/total_payments'
p1131
I0
sS'bonus/total_payments'
p1132
F0.2535014893212498
sg31
I394475
sg32
I4160672
ssS'DIMICHELE RICHARD G'
p1133
(dp1134
g3
g6
sS'bonus/salary'
p1135
F3.8053487982708494
sg5
g6
sg7
I35812
sg8
I00
sg9
g6
sg10
S'richard.dimichele@enron.com'
p1136
sg12
I694862
sS'shared_receipt_with_poi/to_messages'
p1137
I0
sg14
g6
sg15
g6
sg16
g6
sg17
g6
sg18
I374689
sg19
g6
sS'restricted_stock/total_stock_value'
p1138
F0.015151515151515152
sg21
I1000000
sg22
I8317782
sg23
g6
sS'from_this_person_to_poi/to_messages'
p1139
I0
sg25
g6
sS'exercised_stock_options/total_stock_value'
p1140
F0.9848484848484849
sg27
I126027
sg28
I262788
sS'shared_receipt_with_poi/total_payments'
p1141
I0
sS'bonus/total_payments'
p1142
F0.42227037042823706
sg31
I2368151
sg32
I8191755
ssS'CARTER REBECCA C'
p1143
(dp1144
g3
I312
sS'bonus/salary'
p1145
F1.14587351848103
sg5
g6
sg7
g6
sg8
I00
sg9
I-159792
sg10
S'rebecca.carter@enron.com'
p1146
sg12
I75000
sS'shared_receipt_with_poi/to_messages'
p1147
F0.6282051282051282
sg14
I-307301
sg15
I196
sg16
g6
sg17
I15
sg18
I540
sg19
g6
sS'restricted_stock/total_stock_value'
p1148
I0
sg21
I300000
sg22
g6
sg23
I29
sS'from_this_person_to_poi/to_messages'
p1149
F0.022435897435897436
sg25
I7
sS'exercised_stock_options/total_stock_value'
p1150
I0
sg27
I307301
sg28
I261809
sS'shared_receipt_with_poi/total_payments'
p1151
F0.0004104222113800028
sS'bonus/total_payments'
p1152
F0.6281972623163308
sg31
I477557
sg32
g6
ssS'BUCHANAN HAROLD G'
p1153
(dp1154
g3
I1088
sS'bonus/salary'
p1155
F2.015990839337626
sg5
g6
sg7
I600
sg8
I00
sg9
g6
sg10
S'john.buchanan@enron.com'
p1156
sg12
I304805
sS'shared_receipt_with_poi/to_messages'
p1157
F0.021139705882352942
sg14
g6
sg15
I23
sg16
g6
sg17
I125
sg18
I1215
sg19
g6
sS'restricted_stock/total_stock_value'
p1158
F0.18633816491786634
sg21
I500000
sg22
I1014505
sg23
I0
sS'from_this_person_to_poi/to_messages'
p1159
F0.0
sg25
I0
sS'exercised_stock_options/total_stock_value'
p1160
F0.8136618350821336
sg27
I189041
sg28
I248017
sS'shared_receipt_with_poi/total_payments'
p1161
F2.180845162838019e-05
sS'bonus/total_payments'
p1162
F0.47409677453000415
sg31
I1054637
sg32
I825464
ssS'YEAP SOON'
p1163
(dp1164
g3
g6
sS'bonus/salary'
p1165
I0
sg5
g6
sg7
I55097
sg8
I00
sg9
g6
sg10
g6
sg12
g6
sS'shared_receipt_with_poi/to_messages'
p1166
I0
sg14
g6
sg15
g6
sg16
g6
sg17
g6
sg18
g6
sg19
g6
sS'restricted_stock/total_stock_value'
p1167
I0
sg21
g6
sg22
I192758
sg23
g6
sS'from_this_person_to_poi/to_messages'
p1168
I0
sg25
g6
sS'exercised_stock_options/total_stock_value'
p1169
F1.0
sg27
g6
sg28
g6
sS'shared_receipt_with_poi/total_payments'
p1170
I0
sS'bonus/total_payments'
p1171
I0
sg31
I55097
sg32
I192758
ssS'MURRAY JULIA H'
p1172
(dp1173
g3
I2192
sS'bonus/salary'
p1174
F1.744561330053558
sg5
g6
sg7
I57580
sg8
I00
sg9
g6
sg10
S'julia.murray@enron.com'
p1175
sg12
I125000
sS'shared_receipt_with_poi/to_messages'
p1176
F0.1802007299270073
sg14
g6
sg15
I395
sg16
g6
sg17
I45
sg18
I330
sg19
g6
sS'restricted_stock/total_stock_value'
p1177
F0.3297001812670618
sg21
I400000
sg22
I597461
sg23
I11
sS'from_this_person_to_poi/to_messages'
p1178
F0.0009124087591240876
sg25
I2
sS'exercised_stock_options/total_stock_value'
p1179
F0.6702998187329382
sg27
I196983
sg28
I229284
sS'shared_receipt_with_poi/total_payments'
p1180
F0.00048633700815322445
sS'bonus/total_payments'
p1181
F0.4924931728133919
sg31
I812194
sg32
I400478
ssS'GARLAND C KEVIN'
p1182
(dp1183
g3
I209
sS'bonus/salary'
p1184
F3.6646460814155017
sg5
g6
sg7
I48405
sg8
I00
sg9
g6
sg10
S'kevin.garland@enron.com'
p1185
sg12
I375304
sS'shared_receipt_with_poi/to_messages'
p1186
F0.8516746411483254
sg14
g6
sg15
I178
sg16
g6
sg17
I44
sg18
I60814
sg19
g6
sS'restricted_stock/total_stock_value'
p1187
F0.2900252523843585
sg21
I850000
sg22
I896153
sg23
I10
sS'from_this_person_to_poi/to_messages'
p1188
F0.1291866028708134
sg25
I27
sS'exercised_stock_options/total_stock_value'
p1189
F0.7099747476156415
sg27
I259907
sg28
I231946
sS'shared_receipt_with_poi/total_payments'
p1190
F0.00011363135816923284
sS'bonus/total_payments'
p1191
F0.5426216541789208
sg31
I1566469
sg32
I636246
ssS'DODSON KEITH'
p1192
(dp1193
g3
I176
sS'bonus/salary'
p1194
F0.3167377818400655
sg5
g6
sg7
I28164
sg8
I00
sg9
g6
sg10
S'keith.dodson@enron.com'
p1195
sg12
g6
sS'shared_receipt_with_poi/to_messages'
p1196
F0.6477272727272727
sg14
g6
sg15
I114
sg16
g6
sg17
I14
sg18
I774
sg19
g6
sS'restricted_stock/total_stock_value'
p1197
I0
sg21
I70000
sg22
g6
sg23
I10
sS'from_this_person_to_poi/to_messages'
p1198
F0.017045454545454544
sg25
I3
sS'exercised_stock_options/total_stock_value'
p1199
I0
sg27
g6
sg28
I221003
sS'shared_receipt_with_poi/total_payments'
p1200
F0.0003563156957063959
sS'bonus/total_payments'
p1201
F0.21879033946883958
sg31
I319941
sg32
g6
ssS'YEAGER F SCOTT'
p1202
(dp1203
g3
g6
sS'bonus/salary'
p1204
I0
sg5
g6
sg7
I53947
sg8
I01
sg9
g6
sg10
S'scott.yeager@enron.com'
p1205
sg12
g6
sS'shared_receipt_with_poi/to_messages'
p1206
I0
sg14
g6
sg15
g6
sg16
g6
sg17
g6
sg18
I147950
sg19
g6
sS'restricted_stock/total_stock_value'
p1207
F0.30090692633371247
sg21
g6
sg22
I11884758
sg23
g6
sS'from_this_person_to_poi/to_messages'
p1208
I0
sg25
g6
sS'exercised_stock_options/total_stock_value'
p1209
F0.6990930736662875
sg27
I3576206
sg28
I158403
sS'shared_receipt_with_poi/total_payments'
p1210
I0
sS'bonus/total_payments'
p1211
I0
sg31
I360300
sg32
I8308552
ssS'HIRKO JOSEPH'
p1212
(dp1213
g3
g6
sS'bonus/salary'
p1214
I0
sg5
I10259
sg7
I77978
sg8
I01
sg9
g6
sg10
S'joe.hirko@enron.com'
p1215
sg12
g6
sS'shared_receipt_with_poi/to_messages'
p1216
I0
sg14
g6
sg15
g6
sg16
g6
sg17
g6
sg18
I2856
sg19
g6
sS'restricted_stock/total_stock_value'
p1217
I0
sg21
g6
sg22
I30766064
sg23
g6
sS'from_this_person_to_poi/to_messages'
p1218
I0
sg25
g6
sS'exercised_stock_options/total_stock_value'
p1219
F1.0
sg27
g6
sg28
g6
sS'shared_receipt_with_poi/total_payments'
p1220
I0
sS'bonus/total_payments'
p1221
I0
sg31
I91093
sg32
I30766064
ssS'DIETRICH JANET R'
p1222
(dp1223
g3
I2572
sS'bonus/salary'
p1224
F2.3990403838464616
sg5
g6
sg7
I3475
sg8
I00
sg9
g6
sg10
S'janet.dietrich@enron.com'
p1225
sg12
I556416
sS'shared_receipt_with_poi/to_messages'
p1226
F0.73950233281493
sg14
g6
sg15
I1902
sg16
g6
sg17
I63
sg18
I473
sg19
g6
sS'restricted_stock/total_stock_value'
p1227
F0.16892938506353858
sg21
I600000
sg22
I1865087
sg23
I305
sS'from_this_person_to_poi/to_messages'
p1228
F0.005443234836702955
sg25
I14
sS'exercised_stock_options/total_stock_value'
p1229
F0.8310706149364614
sg27
I315068
sg28
I250100
sS'shared_receipt_with_poi/total_payments'
p1230
F0.0013484924110080086
sS'bonus/total_payments'
p1231
F0.4253919277627788
sg31
I1410464
sg32
I1550019
ssS'DERRICK JR. JAMES V'
p1232
(dp1233
g3
I2181
sS'bonus/salary'
p1234
F1.6247778624016247
sg5
g6
sg7
I51124
sg8
I00
sg9
I-1284000
sg10
S'james.derrick@enron.com'
p1235
sg12
I484000
sS'shared_receipt_with_poi/to_messages'
p1236
F0.6423658872077029
sg14
I-1787380
sg15
I1401
sg16
g6
sg17
I909
sg18
I7482
sg19
g6
sS'restricted_stock/total_stock_value'
p1237
F0.20237744642638578
sg21
I800000
sg22
I8831913
sg23
I64
sS'from_this_person_to_poi/to_messages'
p1238
F0.009170105456212746
sg25
I20
sS'exercised_stock_options/total_stock_value'
p1239
F1.0
sg27
I1787380
sg28
I492375
sS'shared_receipt_with_poi/total_payments'
p1240
F0.0025427374083679837
sS'bonus/total_payments'
p1241
F1.4519556935720106
sg31
I550981
sg32
I8831913
ssS'PAI LOU L'
p1242
(dp1243
g3
g6
sS'bonus/salary'
p1244
F3.8185574253758414
sg5
g6
sg7
I32047
sg8
I00
sg9
g6
sg10
S'lou.pai@enron.com'
p1245
sg12
g6
sS'shared_receipt_with_poi/to_messages'
p1246
I0
sg14
g6
sg15
g6
sg16
g6
sg17
g6
sg18
I1829457
sg19
g6
sS'restricted_stock/total_stock_value'
p1247
F0.35493273344912846
sg21
I1000000
sg22
I23817930
sg23
g6
sS'from_this_person_to_poi/to_messages'
p1248
I0
sg25
g6
sS'exercised_stock_options/total_stock_value'
p1249
F0.6450672665508715
sg27
I8453763
sg28
I261879
sS'shared_receipt_with_poi/total_payments'
p1250
I0
sS'bonus/total_payments'
p1251
F0.3201656665224854
sg31
I3123383
sg32
I15364167
ssS'BAY FRANKLIN R'
p1252
(dp1253
g3
g6
sS'bonus/salary'
p1254
F1.6689545251615756
sg5
I260455
sg7
I129142
sg8
I00
sg9
I-201641
sg10
S'frank.bay@enron.com'
p1255
sg12
g6
sS'shared_receipt_with_poi/to_messages'
p1256
I0
sg14
I-82782
sg15
g6
sg16
g6
sg17
g6
sg18
I69
sg19
g6
sS'restricted_stock/total_stock_value'
p1257
F2.3137080648744726
sg21
I400000
sg22
I63014
sg23
g6
sS'from_this_person_to_poi/to_messages'
p1258
I0
sg25
g6
sS'exercised_stock_options/total_stock_value'
p1259
I0
sg27
I145796
sg28
I239671
sS'shared_receipt_with_poi/total_payments'
p1260
I0
sS'bonus/total_payments'
p1261
F0.48326921961686414
sg31
I827696
sg32
g6
ssS'HAYSLETT RODERICK J'
p1262
(dp1263
g3
I2649
sS'bonus/salary'
p1264
I0
sg5
g6
sg7
g6
sg8
I00
sg9
g6
sg10
S'rod.hayslett@enron.com'
p1265
sg12
g6
sS'shared_receipt_with_poi/to_messages'
p1266
F0.21555303888259722
sg14
g6
sg15
I571
sg16
g6
sg17
I1061
sg18
g6
sg19
g6
sS'restricted_stock/total_stock_value'
p1267
F1.0
sg21
g6
sg22
I346663
sg23
I35
sS'from_this_person_to_poi/to_messages'
p1268
F0.014345035862589657
sg25
I38
sS'exercised_stock_options/total_stock_value'
p1269
I0
sg27
I346663
sg28
g6
sS'shared_receipt_with_poi/total_payments'
p1270
I0
sS'bonus/total_payments'
p1271
I0
sg31
g6
sg32
g6
ssS'FUGH JOHN L'
p1272
(dp1273
g3
g6
sS'bonus/salary'
p1274
I0
sg5
I50591
sg7
g6
sg8
I00
sg9
g6
sg10
g6
sg12
g6
sS'shared_receipt_with_poi/to_messages'
p1275
I0
sg14
g6
sg15
g6
sg16
g6
sg17
g6
sg18
g6
sg19
g6
sS'restricted_stock/total_stock_value'
p1276
I0
sg21
g6
sg22
I176378
sg23
g6
sS'from_this_person_to_poi/to_messages'
p1277
I0
sg25
g6
sS'exercised_stock_options/total_stock_value'
p1278
F1.0
sg27
g6
sg28
g6
sS'shared_receipt_with_poi/total_payments'
p1279
I0
sS'bonus/total_payments'
p1280
I0
sg31
I50591
sg32
I176378
ssS'FALLON JAMES B'
p1281
(dp1282
g3
I1755
sS'bonus/salary'
p1283
F8.207808580771403
sg5
g6
sg7
I95924
sg8
I00
sg9
g6
sg10
S'jim.fallon@enron.com'
p1284
sg12
I374347
sS'shared_receipt_with_poi/to_messages'
p1285
F0.913960113960114
sg14
g6
sg15
I1604
sg16
g6
sg17
I75
sg18
I401481
sg19
g6
sS'restricted_stock/total_stock_value'
p1286
F0.5968712900322801
sg21
I2500000
sg22
I2332399
sg23
I42
sS'from_this_person_to_poi/to_messages'
p1287
F0.021082621082621083
sg25
I37
sS'exercised_stock_options/total_stock_value'
p1288
F0.40312870996771993
sg27
I1392142
sg28
I304588
sS'shared_receipt_with_poi/total_payments'
p1289
F0.0004363034975002312
sS'bonus/total_payments'
p1290
F0.6800241544579664
sg31
I3676340
sg32
I940257
ssS'KOENIG MARK E'
p1291
(dp1292
g3
I2374
sS'bonus/salary'
p1293
F2.2584579249288588
sg5
g6
sg7
I127017
sg8
I01
sg9
g6
sg10
S'mark.koenig@enron.com'
p1294
sg12
I300000
sS'shared_receipt_with_poi/to_messages'
p1295
F0.9566133108677338
sg14
g6
sg15
I2271
sg16
g6
sg17
I61
sg18
I150458
sg19
g6
sS'restricted_stock/total_stock_value'
p1296
F0.6501470009973672
sg21
I700000
sg22
I1920055
sg23
I53
sS'from_this_person_to_poi/to_messages'
p1297
F0.006318449873631003
sg25
I15
sS'exercised_stock_options/total_stock_value'
p1298
F0.3498529990026327
sg27
I1248318
sg28
I309946
sS'shared_receipt_with_poi/total_payments'
p1299
F0.001430622374278783
sS'bonus/total_payments'
p1300
F0.44096682606567505
sg31
I1587421
sg32
I671737
ssS'SAVAGE FRANK'
p1301
(dp1302
g3
g6
sS'bonus/salary'
p1303
I0
sg5
g6
sg7
g6
sg8
I00
sg9
I-121284
sg10
g6
sg12
g6
sS'shared_receipt_with_poi/to_messages'
p1304
I0
sg14
g6
sg15
g6
sg16
g6
sg17
g6
sg18
g6
sg19
I125034
sS'restricted_stock/total_stock_value'
p1305
I0
sg21
g6
sg22
g6
sg23
g6
sS'from_this_person_to_poi/to_messages'
p1306
I0
sg25
g6
sS'exercised_stock_options/total_stock_value'
p1307
I0
sg27
g6
sg28
g6
sS'shared_receipt_with_poi/total_payments'
p1308
I0
sS'bonus/total_payments'
p1309
I0
sg31
I3750
sg32
g6
ssS'IZZO LAWRENCE L'
p1310
(dp1311
g3
I496
sS'bonus/salary'
p1312
I0
sg5
g6
sg7
I28093
sg8
I00
sg9
g6
sg10
S'larry.izzo@enron.com'
p1313
sg12
I312500
sS'shared_receipt_with_poi/to_messages'
p1314
F0.8810483870967742
sg14
g6
sg15
I437
sg16
g6
sg17
I19
sg18
I1553729
sg19
g6
sS'restricted_stock/total_stock_value'
p1315
F0.6279760411547806
sg21
g6
sg22
I5819980
sg23
I28
sS'from_this_person_to_poi/to_messages'
p1316
F0.010080645161290322
sg25
I5
sS'exercised_stock_options/total_stock_value'
p1317
F0.3720239588452194
sg27
I3654808
sg28
I85274
sS'shared_receipt_with_poi/total_payments'
p1318
F0.00022075211305741172
sS'bonus/total_payments'
p1319
I0
sg31
I1979596
sg32
I2165172
ssS'TILNEY ELIZABETH A'
p1320
(dp1321
g3
I460
sS'bonus/salary'
p1322
F1.2129151201998885
sg5
g6
sg7
g6
sg8
I00
sg9
I-575000
sg10
S'elizabeth.tilney@enron.com'
p1323
sg12
I275000
sS'shared_receipt_with_poi/to_messages'
p1324
F0.8239130434782609
sg14
g6
sg15
I379
sg16
g6
sg17
I19
sg18
I152055
sg19
g6
sS'restricted_stock/total_stock_value'
p1325
F0.4938110102205229
sg21
I300000
sg22
I1168042
sg23
I10
sS'from_this_person_to_poi/to_messages'
p1326
F0.02391304347826087
sg25
I11
sS'exercised_stock_options/total_stock_value'
p1327
F0.5061889897794771
sg27
I576792
sg28
I247338
sS'shared_receipt_with_poi/total_payments'
p1328
F0.0009489400164750008
sS'bonus/total_payments'
p1329
F0.7511398547295521
sg31
I399393
sg32
I591250
ssS'BUY RICHARD B'
p1330
(dp1331
g3
I3523
sS'bonus/salary'
p1332
F2.722767784211577
sg5
I649584
sg7
g6
sg8
I00
sg9
I-694862
sg10
S'rick.buy@enron.com'
p1333
sg12
I769862
sS'shared_receipt_with_poi/to_messages'
p1334
F0.6622196991200682
sg14
g6
sg15
I2333
sg16
g6
sg17
I1053
sg18
I400572
sg19
g6
sS'restricted_stock/total_stock_value'
p1335
F0.26176944493637627
sg21
I900000
sg22
I3444470
sg23
I156
sS'from_this_person_to_poi/to_messages'
p1336
F0.02015327845586148
sg25
I71
sS'exercised_stock_options/total_stock_value'
p1337
F0.7382305550636237
sg27
I901657
sg28
I330546
sS'shared_receipt_with_poi/total_payments'
p1338
F0.0009903629576236723
sS'bonus/total_payments'
p1339
F0.38205171961479
sg31
I2355702
sg32
I2542813
ssS'GRAMM WENDY L'
p1340
(dp1341
g3
g6
sS'bonus/salary'
p1342
I0
sg5
g6
sg7
g6
sg8
I00
sg9
g6
sg10
g6
sg12
g6
sS'shared_receipt_with_poi/to_messages'
p1343
I0
sg14
g6
sg15
g6
sg16
g6
sg17
g6
sg18
g6
sg19
I119292
sS'restricted_stock/total_stock_value'
p1344
I0
sg21
g6
sg22
g6
sg23
g6
sS'from_this_person_to_poi/to_messages'
p1345
I0
sg25
g6
sS'exercised_stock_options/total_stock_value'
p1346
I0
sg27
g6
sg28
g6
sS'shared_receipt_with_poi/total_payments'
p1347
I0
sS'bonus/total_payments'
p1348
I0
sg31
I119292
sg32
g6
ssS'CAUSEY RICHARD A'
p1349
(dp1350
g3
I1892
sS'bonus/salary'
p1351
F2.4085416521150607
sg5
g6
sg7
I30674
sg8
I01
sg9
I-235000
sg10
S'richard.causey@enron.com'
p1352
sg12
I350000
sS'shared_receipt_with_poi/to_messages'
p1353
F0.837737843551797
sg14
g6
sg15
I1585
sg16
g6
sg17
I49
sg18
I307895
sg19
g6
sS'restricted_stock/total_stock_value'
p1354
F1.0
sg21
I1000000
sg22
I2502063
sg23
I58
sS'from_this_person_to_poi/to_messages'
p1355
F0.006342494714587738
sg25
I12
sS'exercised_stock_options/total_stock_value'
p1356
I0
sg27
I2502063
sg28
I415189
sS'shared_receipt_with_poi/total_payments'
p1357
F0.0008481569042112462
sS'bonus/total_payments'
p1358
F0.5351147660638778
sg31
I1868758
sg32
g6
ssS'TAYLOR MITCHELL S'
p1359
(dp1360
g3
I533
sS'bonus/salary'
p1361
F2.2623240100447184
sg5
I227449
sg7
g6
sg8
I00
sg9
g6
sg10
S'mitchell.taylor@enron.com'
p1362
sg12
g6
sS'shared_receipt_with_poi/to_messages'
p1363
F0.5628517823639775
sg14
g6
sg15
I300
sg16
g6
sg17
I29
sg18
g6
sg19
g6
sS'restricted_stock/total_stock_value'
p1364
F0.15054493293543902
sg21
I600000
sg22
I3745048
sg23
I0
sS'from_this_person_to_poi/to_messages'
p1365
F0.0
sg25
I0
sS'exercised_stock_options/total_stock_value'
p1366
F0.849455067064561
sg27
I563798
sg28
I265214
sS'shared_receipt_with_poi/total_payments'
p1367
F0.0002745585784455042
sS'bonus/total_payments'
p1368
F0.5491171568910085
sg31
I1092663
sg32
I3181250
ssS'DONAHUE JR JEFFREY M'
p1369
(dp1370
g3
I865
sS'bonus/salary'
p1371
F2.8714900520816506
sg5
g6
sg7
I96268
sg8
I00
sg9
I-300000
sg10
S'jeff.donahue@enron.com'
p1372
sg12
g6
sS'shared_receipt_with_poi/to_messages'
p1373
F0.892485549132948
sg14
g6
sg15
I772
sg16
g6
sg17
I22
sg18
I891
sg19
g6
sS'restricted_stock/total_stock_value'
p1374
F0.2914629949638664
sg21
I800000
sg22
I1080988
sg23
I188
sS'from_this_person_to_poi/to_messages'
p1375
F0.012716763005780347
sg25
I11
sS'exercised_stock_options/total_stock_value'
p1376
F0.7085370050361336
sg27
I315068
sg28
I278601
sS'shared_receipt_with_poi/total_payments'
p1377
F0.0008815200511555677
sS'bonus/total_payments'
p1378
F0.9134922809902256
sg31
I875760
sg32
I765920
ssS'GLISAN JR BEN F'
p1379
(dp1380
g3
I873
sS'bonus/salary'
p1381
F2.1820165469588146
sg5
g6
sg7
I125978
sg8
I01
sg9
g6
sg10
S'ben.glisan@enron.com'
p1382
sg12
I71023
sS'shared_receipt_with_poi/to_messages'
p1383
F1.0011454753722795
sg14
g6
sg15
I874
sg16
g6
sg17
I16
sg18
I200308
sg19
g6
sS'restricted_stock/total_stock_value'
p1384
F0.5058378053448351
sg21
I600000
sg22
I778546
sg23
I52
sS'from_this_person_to_poi/to_messages'
p1385
F0.006872852233676976
sg25
I6
sS'exercised_stock_options/total_stock_value'
p1386
F0.49416219465516487
sg27
I393818
sg28
I274975
sS'shared_receipt_with_poi/total_payments'
p1387
F0.0006869535418192794
sS'bonus/total_payments'
p1388
F0.4715928204709012
sg31
I1272284
sg32
I384728
ss.